ccopy_reg
_reconstructor
p0
(cutil
Counter
p1
c__builtin__
dict
p2
(dp3
((I2
I-3
tp4
S'R'
p5
tp6
F0.6221116584280857
s((I1
I3
tp7
S'L'
p8
tp9
F1.0697059541493545
s((I2
I1
tp10
g5
tp11
F0.14701801918373908
s((I5
I1
tp12
S'G'
p13
tp14
F1.2403182222567072e-16
s((I0
I-2
tp15
g13
tp16
F0.5
s((I0
I1
tp17
g13
tp18
F0.5
s((I2
I-3
tp19
g8
tp20
F0.3040705031746727
s((I3
I-1
tp21
g8
tp22
F0.009476102364014048
s((I1
I-1
tp23
g13
tp24
F1.995562788660023
s((I2
I2
tp25
g13
tp26
F1.2003412249427403
s((I1
I0
tp27
g13
tp28
F2.1217601644152775
s((I4
I-2
tp29
g13
tp30
F0.008109875564582182
s((I2
I2
tp31
g8
tp32
F0.6501016357648914
s((I4
I3
tp33
g8
tp34
F9.78453500881179e-11
s((I5
I1
tp35
g8
tp36
F1.4628391495614466e-40
s((I4
I-3
tp37
g5
tp38
F0.00041783153979378467
s((I4
I2
tp39
g5
tp40
F0.00043410114654576787
s((I3
I-2
tp41
g8
tp42
F0.09538902517077948
s((I4
I3
tp43
g5
tp44
F2.049970070284762e-06
s((I1
I-1
tp45
g5
tp46
F1.3730657022154718
s((I3
I-3
tp47
g8
tp48
F0.030818952652501962
s((I3
I1
tp49
g5
tp50
F0.018592101376979364
s((I2
I3
tp51
g8
tp52
F0.016229961949648302
s((I2
I2
tp53
g5
tp54
F0.9651269380491885
s((I4
I0
tp55
g13
tp56
F1.8714161181042987e-05
s((I3
I2
tp57
g13
tp58
F0.24242824438903568
s((I4
I2
tp59
g13
tp60
F0.00206627241264976
s((I4
I-1
tp61
g5
tp62
F0.00038608832871609366
s((I1
I2
tp63
g5
tp64
F7.216145198540984
s((I4
I3
tp65
g13
tp66
F1.4142235976262622e-06
s((I1
I-3
tp67
g13
tp68
F5.474661991730217
s((I1
I-3
tp69
g8
tp70
F1.6069366348026095
s((I4
I-2
tp71
g8
tp72
F0.0036156597940106465
s((I0
I-1
tp73
g8
tp74
F0.5
s((I1
I0
tp75
g8
tp76
F0.32625000532658954
s((I3
I1
tp77
g8
tp78
F0.0022303977967617987
s((I5
I-3
tp79
g13
tp80
F7.942441293214872e-228
s((I2
I0
tp81
g5
tp82
F0.22833086868377897
s((I2
I-2
tp83
g13
tp84
F0.8148609542117118
s((I1
I1
tp85
g5
tp86
F1.101778910448117
s((I3
I-2
tp87
g5
tp88
F0.06130108641975425
s((I5
I-1
tp89
g5
tp90
F5.373670043843493e-26
s((I3
I3
tp91
g8
tp92
F0.024866859281562577
s((I0
I-3
tp93
g13
tp94
F-3.611948555597516e-40
s((I3
I-1
tp95
g5
tp96
F0.014309995490065598
s((I2
I3
tp97
g13
tp98
F0.3747504383409797
s((I1
I3
tp99
g13
tp100
F4.5160656249999995
s((I1
I-1
tp101
g8
tp102
F0.8718125000017989
s((I3
I-3
tp103
g13
tp104
F0.015367581370346195
s((I2
I-2
tp105
g8
tp106
F0.11864135513341838
s((I1
I0
tp107
g5
tp108
F3.0012540936506427
s((I1
I-2
tp109
g13
tp110
F2.8266315399517934
s((I1
I3
tp111
g5
tp112
F4.281686359074284
s((I1
I1
tp113
g13
tp114
F2.000000598653115
s((I5
I-3
tp115
g5
tp116
F1.0840460513501557e-69
s((I5
I-1
tp117
g8
tp118
F8.519948136557233e-64
s((I0
I1
tp119
g5
tp120
F0.5000001288272589
s((I1
I-3
tp121
g5
tp122
F4.042508591220371
s((I2
I1
tp123
g13
tp124
F0.041082865028685626
s((I5
I-3
tp125
g8
tp126
F1.6083443618760117e-228
s((I4
I1
tp127
g8
tp128
F2.866848755162673e-07
s((I2
I0
tp129
g13
tp130
F0.4693899837968496
s((I3
I3
tp131
g5
tp132
F0.07693672298680797
s((I2
I-1
tp133
g5
tp134
F0.379035196147672
s((I3
I1
tp135
g13
tp136
F0.01994732839260905
s((I3
I-3
tp137
g5
tp138
F0.05220513569195261
s((I2
I-3
tp139
g13
tp140
F0.8784468695851512
s((I3
I2
tp141
g5
tp142
F0.05824119586676908
s((I4
I2
tp143
g8
tp144
F0.00037997869009170215
s((I0
I2
tp145
g5
tp146
F5.797226647881001e-08
s((I4
I-2
tp147
g5
tp148
F0.002841479823515621
s((I4
I-3
tp149
g8
tp150
F1.0412262635764236e-05
s((I2
I-2
tp151
g5
tp152
F0.4271159331866148
s((I4
I-3
tp153
g13
tp154
F3.165990539375151e-05
s((I3
I2
tp155
g8
tp156
F0.07633768053626667
s((I0
I-3
tp157
g5
tp158
F-7.860814916270182e-66
s((I1
I1
tp159
g8
tp160
F1.0554019206394039
s((I2
I-1
tp161
g8
tp162
F0.2251046953563665
s((I4
I1
tp163
g13
tp164
F1.4157791938978563e-06
s((I4
I-1
tp165
g13
tp166
F0.00085661506535112
s((I3
I3
tp167
g13
tp168
F0.021430037091974944
s((I3
I0
tp169
g8
tp170
F0.000926836760015984
s((I4
I0
tp171
g5
tp172
F0.0003816369199168798
s((I1
I2
tp173
g8
tp174
F1.4371382575305633
s((I2
I1
tp175
g8
tp176
F0.04085888985466138
s((I1
I-2
tp177
g8
tp178
F3.324689801199045
s((I3
I0
tp179
g5
tp180
F0.09019808549957364
s((I4
I0
tp181
g8
tp182
F6.986789342459394e-06
s((I2
I3
tp183
g5
tp184
F0.4911982883633809
s((I3
I0
tp185
g13
tp186
F0.09816329634167884
s((I5
I-2
tp187
g13
tp188
F2.756262717320165e-16
s((I5
I-2
tp189
g5
tp190
F2.5116444054435088e-17
s((I1
I-2
tp191
g5
tp192
F5.5478530164491735
s((I1
I2
tp193
g13
tp194
F3.9500345342348537
s((I3
I-2
tp195
g13
tp196
F0.2537663822803186
s((I5
I1
tp197
g5
tp198
F5.386150158956202e-35
s((I5
I-2
tp199
g8
tp200
F5.581432000155197e-17
s((I3
I-1
tp201
g13
tp202
F0.021723260982709294
s((I5
I-1
tp203
g13
tp204
F1.0476624585199343e-35
s((I2
I-1
tp205
g13
tp206
F0.11309472721168412
s((I2
I0
tp207
g8
tp208
F0.04716340115939191
s((I4
I1
tp209
g5
tp210
F0.0003789795426423028
s((I4
I-1
tp211
g8
tp212
F0.00017481619682080252
stp213
Rp214
.