ccopy_reg
_reconstructor
p0
(cutil
Counter
p1
c__builtin__
dict
p2
(dp3
((I2
I-3
tp4
S'R'
p5
tp6
F2.4617661176636965
s((I9
I-2
tp7
g5
tp8
F1.2044859911213686
s((I6
I2
tp9
S'G'
p10
tp11
F2.058033517092523
s((I1
I3
tp12
S'L'
p13
tp14
I0
s((I8
I2
tp15
g10
tp16
F1.545829933173867
s((I7
I-2
tp17
g5
tp18
F1.6460955545001332
s(g15
g13
tp19
F1.5179976457327247
s((I1
I4
tp20
g13
tp21
F2.360832611779337
s((I9
I-4
tp22
g10
tp23
F0.9207949535875608
s((I7
I-1
tp24
g10
tp25
F2.541772217988694
s((I1
I-4
tp26
g10
tp27
I0
s((I8
I-1
tp28
g10
tp29
F1.798311600187366
s((I8
I-4
tp30
g13
tp31
F1.4702487984218442
s((I4
I4
tp32
g13
tp33
F1.8864981217962686
s((I3
I-4
tp34
g13
tp35
F1.7662919677439497
s((I9
I0
tp36
g10
tp37
F1.811881101064404
s((I4
I3
tp38
g13
tp39
F1.7023294578666406
s((I5
I1
tp40
g13
tp41
F2.1930323278738455
s((I8
I4
tp42
g5
tp43
F0.9537355665454266
s((I7
I1
tp44
g10
tp45
F2.480573147987674
s((I6
I1
tp46
g10
tp47
F2.2641392326084686
s((I7
I-3
tp48
g5
tp49
F1.465927719178039
s(g38
g5
tp50
F0.5830263594421743
s((I2
I1
tp51
g5
tp52
F3.7572369412656137
s((I9
I2
tp53
g5
tp54
F1.5223219647378716
s(g42
g13
tp55
F1.179822568994061
s((I2
I4
tp56
g13
tp57
F1.0084175556750126
s((I3
I-3
tp58
g13
tp59
F2.5983707890266494
s((I3
I1
tp60
g5
tp61
F3.3066515794965943
s((I3
I4
tp62
g5
tp63
F1.2978404249021032
s((I9
I3
tp64
g13
tp65
F0.8532573397852682
s((I2
I3
tp66
g13
tp67
F1.877149666867294
s((I7
I2
tp68
g5
tp69
F2.0480222084590265
s((I7
I-4
tp70
g5
tp71
F1.3781362532764092
s((I3
I2
tp72
g10
tp73
F1.8178103955827316
s((I7
I0
tp74
g5
tp75
F1.9878944849273683
s((I4
I-2
tp76
g5
tp77
F1.862770898833657
s((I2
I-4
tp78
g10
tp79
F0.8865280249922385
s((I6
I4
tp80
g13
tp81
F1.284374742636067
s((I1
I-3
tp82
g10
tp83
I0
s(g78
g13
tp84
F2.788805604273246
s((I9
I1
tp85
g5
tp86
F1.7875592838336223
s(g74
g13
tp87
F2.1023165216287403
s(g82
g13
tp88
F3.361420185519676
s(g80
g5
tp89
F1.7224866229345448
s(g34
g10
tp90
F1.8034929825374908
s((I6
I-1
tp91
g5
tp92
F2.2185336170618157
s((I5
I2
tp93
g13
tp94
F1.9220367180988696
s(g53
g10
tp95
F1.3500384031734542
s(g30
g10
tp96
F0.9988334840766733
s((I6
I-4
tp97
g5
tp98
F1.2623330892739082
s((I8
I0
tp99
g5
tp100
F1.8333257135684484
s((I6
I-3
tp101
g5
tp102
F1.5349574762171496
s((I8
I3
tp103
g10
tp104
F1.402673812814228
s(g91
g10
tp105
F2.4004903727390947
s((I1
I1
tp106
g5
tp107
F1.7910744276094077
s(g46
g13
tp108
F2.1890948973573248
s((I3
I3
tp109
g10
tp110
F1.3870308139030383
s((I8
I1
tp111
g5
tp112
F1.7461639886946223
s(g17
g10
tp113
F1.88562748350884
s((I4
I-4
tp114
g5
tp115
F0.9370272204393099
s((I9
I-3
tp116
g13
tp117
F1.4782375516564494
s((I2
I-1
tp118
g13
tp119
F3.186745685601079
s((I1
I0
tp120
g5
tp121
F1.3198488120370486
s((I5
I-1
tp122
g5
tp123
F2.321748425801042
s((I3
I-1
tp124
g10
tp125
F3.057616543280438
s(g7
g13
tp126
F1.743047157545932
s(g24
g13
tp127
F1.9380174334242124
s(g36
g5
tp128
F1.5587774009145734
s(g74
g10
tp129
F2.590853176697122
s(g26
g13
tp130
F1.5163524611783061
s((I5
I-3
tp131
g5
tp132
F1.5145675843585247
s(g82
g5
tp133
I0
s(g26
g5
tp134
F1.6143245176677035
s((I6
I-2
tp135
g10
tp136
F1.8299411629971507
s(g9
g13
tp137
F1.6258090714777156
s((I4
I1
tp138
g13
tp139
F2.394003330440361
s((I2
I0
tp140
g10
tp141
F2.114702874631478
s((I7
I4
tp142
g13
tp143
F1.2470383382644399
s(g118
g5
tp144
F3.98184299173242
s(g68
g10
tp145
F1.6422309394327352
s(g42
g10
tp146
F0.9985010009702131
s(g4
g10
tp147
F1.6767388804203223
s((I4
I-3
tp148
g13
tp149
F2.480542539909879
s(g148
g10
tp150
F1.7629543483318926
s(g72
g13
tp151
F2.0072318260006456
s(g70
g10
tp152
F1.179981998977311
s(g20
g5
tp153
I0
s(g135
g5
tp154
F2.0470217395800683
s(g99
g10
tp155
F2.339539552430258
s(g66
g10
tp156
F1.2536306964573738
s(g76
g10
tp157
F2.417627149284665
s((I5
I4
tp158
g10
tp159
F1.1879694469764746
s((I3
I0
tp160
g13
tp161
F2.6564024772760253
s((I5
I-2
tp162
g13
tp163
F2.7651568953599646
s(g118
g10
tp164
F2.9693782370439785
s((I1
I2
tp165
g13
tp166
F2.1963894406543853
s((I9
I1
tp167
g13
tp168
F1.248009173016579
s((I1
I-2
tp169
g13
tp170
I0
s(g103
g13
tp171
F1.20639776571729
s(g91
g13
tp172
F2.6283253017454866
s((I7
I3
tp173
g10
tp174
F1.4273721719439922
s(g114
g10
tp175
F1.2965110784943819
s((I9
I4
tp176
g10
tp177
F0.7816475553098465
s(g62
g13
tp178
F1.2431776361267541
s(g53
g13
tp179
F1.0833929860968228
s(g78
g5
tp180
F1.497813535156443
s((I6
I3
tp181
g13
tp182
F1.1014214796555737
s(g62
g10
tp183
F1.7271864850447112
s(g68
g13
tp184
F1.688635402970592
s(g181
g10
tp185
F1.3801819661515133
s(g116
g5
tp186
F0.9213591430903811
s(g122
g13
tp187
F2.6250942302295934
s(g48
g10
tp188
F1.690676343591265
s(g109
g5
tp189
F2.064693671497685
s(g162
g10
tp190
F2.2867273390818417
s(g7
g10
tp191
F1.3501761435824415
s(g160
g10
tp192
F3.071646617619902
s(g32
g5
tp193
F0.6324697991474245
s(g56
g10
tp194
F1.1091341804498482
s((I5
I3
tp195
g10
tp196
F1.4894486391783834
s((I4
I2
tp197
g5
tp198
F2.672024973541662
s((I8
I-2
tp199
g10
tp200
F1.6561207007995853
s(g173
g13
tp201
F1.4769389078790507
s((I6
I0
tp202
g5
tp203
F2.4159252137067297
s(g17
g13
tp204
F2.161961466611774
s(g4
g13
tp205
F4.0240644381467705
s(g173
g5
tp206
F1.7087007364227529
s(g80
g10
tp207
F1.0858825936590333
s(g12
g5
tp208
I0
s((I8
I-3
tp209
g5
tp210
F1.1596566629150962
s(g169
g10
tp211
I0
s((I2
I2
tp212
g10
tp213
F1.9481427365960085
s(g120
g10
tp214
F1.276270773494678
s((I5
I-4
tp215
g5
tp216
F1.5226835305223707
s(g64
g5
tp217
F1.371884165101128
s((I4
I-1
tp218
g10
tp219
F3.0032025610769644
s(g135
g13
tp220
F2.5856180208056867
s(g158
g5
tp221
F1.7576274778864083
s(g56
g5
tp222
F2.400793151476804
s(g148
g5
tp223
F1.811407593483645
s(g158
g13
tp224
F1.3412569055880534
s(g124
g13
tp225
F3.019200350217605
s(g169
g5
tp226
F3.0776427262003523
s(g199
g13
tp227
F1.8581197586551625
s(g46
g5
tp228
F2.841597607333358
s((I2
I-2
tp229
g5
tp230
F2.8062068857955045
s(g212
g5
tp231
F3.9936902052707683
s(g116
g10
tp232
F1.1229590884289724
s(g9
g5
tp233
F2.427670198701386
s(g176
g13
tp234
F1.0667085261509621
s(g138
g5
tp235
F3.075440196156368
s(g165
g5
tp236
F0.7567288327145333
s(g22
g13
tp237
F1.2981266420963462
s(g176
g5
tp238
F0.7728978713964509
s(g76
g13
tp239
F3.2340210308248887
s((I9
I-1
tp240
g5
tp241
F1.3471343293760016
s(g28
g13
tp242
F1.8607420896748597
s(g120
g13
tp243
I0
s(g15
g5
tp244
F1.8366943059524985
s(g93
g10
tp245
F1.7606757351975104
s(g32
g10
tp246
F1.3597656285267035
s(g60
g13
tp247
F2.252379308912448
s(g131
g10
tp248
F1.5567661412179212
s((I3
I-2
tp249
g5
tp250
F2.2300662864425016
s(g140
g5
tp251
F4.573671970937795
s(g111
g13
tp252
F1.652814177877341
s(g114
g13
tp253
F2.0676786979083377
s(g124
g5
tp254
F2.6805558793589235
s(g162
g5
tp255
F1.9342674241356534
s(g109
g13
tp256
F1.3235319442858187
s(g106
g13
tp257
I0
s(g12
g10
tp258
F1.1472716897502426
s((I5
I0
tp259
g10
tp260
F2.9847802870649396
s((I1
I-1
tp261
g13
tp262
F1.6259818874348664
s(g142
g5
tp263
F1.1939324428051283
s(g261
g10
tp264
I0
s(g64
g10
tp265
F1.0079643900455513
s(g99
g13
tp266
F1.7578695769554513
s(g209
g13
tp267
F1.663196917548217
s(g30
g5
tp268
F0.8259973051674063
s(g40
g5
tp269
F2.98014672706334
s(g199
g5
tp270
F1.5528788413346526
s(g202
g13
tp271
F2.2898312356567563
s(g101
g10
tp272
F1.1788565880169384
s(g22
g5
tp273
F0.8726611796307585
s(g195
g5
tp274
F2.134975616571981
s((I4
I0
tp275
g10
tp276
F3.58496124013254
s(g51
g10
tp277
F2.2651402581422975
s(g58
g10
tp278
F1.9067558053654035
s(g36
g13
tp279
F1.5049973918936546
s(g195
g13
tp280
F1.372823015055721
s(g70
g13
tp281
F1.6458628376370126
s(g131
g13
tp282
F2.364854767194178
s(g111
g10
tp283
F2.1118464618326254
s(g249
g10
tp284
F2.3832665065343894
s(g60
g10
tp285
F2.5331436123906586
s(g261
g5
tp286
I0
s(g142
g10
tp287
F1.2748054609912178
s(g28
g5
tp288
F1.7117137825094173
s(g72
g5
tp289
F2.188461441023379
s(g48
g13
tp290
F1.79465644778687
s(g122
g10
tp291
F2.851870277841838
s(g106
g10
tp292
I0
s(g218
g5
tp293
F2.6379487707144116
s(g40
g10
tp294
F2.5399253210391715
s(g138
g10
tp295
F2.2975760256054643
s(g44
g5
tp296
F2.1731374453539782
s(g209
g10
tp297
F1.1708686493522622
s(g34
g5
tp298
F1.3997205562760229
s(g38
g10
tp299
F1.209950804724757
s(g181
g5
tp300
F2.0380511601647564
s(g215
g10
tp301
F1.4452069774158427
s(g97
g10
tp302
F1.3064787150704698
s(g93
g5
tp303
F2.5183675215342842
s(g229
g13
tp304
F3.6302048379065983
s(g240
g13
tp305
F1.8898338023504346
s(g97
g13
tp306
F1.9719718946198794
s(g249
g13
tp307
F3.0302571165695893
s(g103
g5
tp308
F1.6239967732666458
s(g58
g5
tp309
F1.5753925553489525
s(g85
g10
tp310
F1.5846804905339869
s(g275
g5
tp311
F3.054826065825947
s(g51
g13
tp312
F2.330659773706059
s(g20
g10
tp313
I0
s(g165
g10
tp314
I0
s(g160
g5
tp315
F3.2981661667113595
s(g275
g13
tp316
F2.7553650084130634
s(g24
g5
tp317
F1.970549807283886
s(g66
g5
tp318
F2.280751907486634
s(g140
g13
tp319
F2.777235686889185
s(g212
g13
tp320
F2.0251215466846513
s(g202
g10
tp321
F2.883420687184869
s(g259
g13
tp322
F2.512720272391753
s(g44
g13
tp323
F1.828412863774
s(g197
g10
tp324
F2.1791574470010735
s((I5
I0
tp325
g5
tp326
F2.529247100047521
s(g197
g13
tp327
F1.1131167541850244
s(g240
g10
tp328
F1.3090019585792305
s(g101
g13
tp329
F2.2724924955358548
s(g215
g13
tp330
F1.9850377530264833
s(g229
g10
tp331
F1.9368736888331681
s(g218
g13
tp332
F2.4957340394715963
stp333
Rp334
.