ccopy_reg
_reconstructor
p0
(cutil
Counter
p1
c__builtin__
dict
p2
(dp3
((I2
I-3
tp4
S'R'
p5
tp6
F-1.6532307993124726
s((I6
I2
tp7
S'G'
p8
tp9
F-0.034774814665215044
s((I1
I3
tp10
S'L'
p11
tp12
I0
s((I8
I2
tp13
g8
tp14
F7.299605043943617e-05
s((I7
I-1
tp15
g5
tp16
F-0.0001034122767554974
s(g13
g11
tp17
F5.189841579585939e-05
s((I1
I4
tp18
g11
tp19
F-1.8716053956793197
s(g15
g8
tp20
F-0.00012669746071594404
s((I1
I-4
tp21
g8
tp22
F-1.8781835613588966
s((I8
I-2
tp23
g8
tp24
F5.027343238135105e-06
s((I8
I-4
tp25
g11
tp26
F4.188581502986591e-06
s((I4
I4
tp27
g11
tp28
F-1.2466526270897225
s((I3
I-4
tp29
g11
tp30
F-1.6219111667198238
s((I4
I3
tp31
g11
tp32
F-1.4997760727918354
s((I5
I1
tp33
g11
tp34
F-1.7075227368549388
s((I8
I4
tp35
g5
tp36
F4.677526983006766e-05
s((I7
I1
tp37
g8
tp38
F-0.00145684771498496
s((I6
I1
tp39
g8
tp40
F-0.8736505220989862
s((I7
I-3
tp41
g5
tp42
F2.552279405936728e-07
s(g31
g5
tp43
F-1.2202963918395813
s((I2
I1
tp44
g5
tp45
F-0.5885626977425953
s((I5
I4
tp46
g11
tp47
F-0.9036154897683487
s(g35
g11
tp48
F1.1941309445188115e-05
s((I2
I4
tp49
g11
tp50
F-1.725288262691656
s((I3
I-3
tp51
g11
tp52
F-1.5536456621524568
s((I3
I1
tp53
g5
tp54
F-1.1644182187689223
s((I3
I4
tp55
g5
tp56
F-1.6159220098474683
s((I2
I3
tp57
g11
tp58
F-1.4285453728456863
s((I7
I2
tp59
g5
tp60
F0.0002455297302921399
s((I7
I-4
tp61
g5
tp62
F7.222389976309891e-07
s((I3
I2
tp63
g8
tp64
F-1.086095069632346
s((I7
I0
tp65
g5
tp66
F7.92744177473707e-07
s((I4
I-1
tp67
g5
tp68
F-1.305142110085344
s(g18
g5
tp69
F-1.8892572907173841
s((I6
I4
tp70
g11
tp71
F1.8259247473924683e-06
s((I1
I-3
tp72
g8
tp73
F-1.4097416707682622
s((I2
I-4
tp74
g11
tp75
F-1.8035266164102282
s(g65
g11
tp76
F1.6779565405987767e-06
s(g72
g11
tp77
F-0.8951791683709135
s(g70
g5
tp78
F4.478654410941764e-06
s(g29
g8
tp79
F-1.577029887958604
s((I6
I-1
tp80
g5
tp81
F-0.001890790750257766
s((I5
I2
tp82
g11
tp83
F-1.626512957945425
s(g25
g8
tp84
F1.208748298711893e-05
s((I6
I-4
tp85
g5
tp86
F6.297731408861997e-06
s((I8
I0
tp87
g5
tp88
F5.909638467178195e-05
s((I6
I-3
tp89
g5
tp90
F3.6109209037073946e-06
s((I8
I3
tp91
g8
tp92
F5.886668566230344e-05
s(g80
g8
tp93
F-0.0006056766740045939
s((I1
I1
tp94
g5
tp95
F-0.6302937438192304
s(g39
g11
tp96
F-0.022454111468382977
s((I3
I-2
tp97
g5
tp98
F-1.5454942832057492
s((I8
I1
tp99
g5
tp100
F7.762293722731423e-05
s((I7
I-2
tp101
g8
tp102
F2.225704107720112e-07
s((I4
I-4
tp103
g5
tp104
F-1.3072500256594237
s((I2
I-1
tp105
g11
tp106
F-1.0929189206432184
s((I1
I0
tp107
g5
tp108
F-1.9323698642682918
s((I5
I-2
tp109
g5
tp110
F-1.7493031728105695
s(g15
g11
tp111
F8.188356173379804e-07
s(g65
g8
tp112
F-0.027669627780639694
s(g21
g11
tp113
F-1.8979541185216495
s((I5
I-3
tp114
g5
tp115
F-1.0295251020981713
s(g74
g8
tp116
F-1.782340036747005
s(g72
g5
tp117
F-0.5705157460764307
s(g21
g5
tp118
F-1.8906510329858943
s((I6
I-2
tp119
g8
tp120
F-8.587314467266284e-06
s(g7
g11
tp121
F-0.0013356394683718728
s((I4
I1
tp122
g11
tp123
F-1.239829339836337
s((I3
I0
tp124
g11
tp125
F-0.9884814672794268
s((I7
I4
tp126
g11
tp127
F7.958617553451708e-07
s(g122
g8
tp128
F-1.257875417697886
s(g59
g8
tp129
F1.227086559290091e-07
s(g35
g8
tp130
F7.196767206902233e-05
s(g4
g8
tp131
F-1.7361174525734013
s((I4
I-3
tp132
g11
tp133
F-1.4343627867936175
s(g132
g8
tp134
F-1.4904256262424285
s(g63
g11
tp135
F-1.3323850299625255
s(g61
g8
tp136
F7.837665343989428e-07
s(g119
g5
tp137
F-0.0008227330762248245
s(g87
g8
tp138
F1.7411062085189064e-05
s(g57
g8
tp139
F-1.4871898240471162
s(g67
g8
tp140
F-1.4191545658212468
s(g46
g8
tp141
F-0.02686745888048304
s((I2
I0
tp142
g8
tp143
F-0.9135990549518811
s((I1
I2
tp144
g11
tp145
I0
s((I1
I-1
tp146
g11
tp147
I0
s(g91
g11
tp148
F4.892362003758511e-06
s(g80
g11
tp149
F-0.0008783713116003076
s((I7
I3
tp150
g8
tp151
F2.7599676118494005e-07
s(g103
g8
tp152
F-1.0312810308428482
s((I6
I0
tp153
g5
tp154
F-0.008426663041597875
s(g55
g11
tp155
F-1.6047427340489824
s(g18
g8
tp156
F-1.8460510076033287
s((I6
I3
tp157
g11
tp158
F-0.06001520578152829
s(g55
g8
tp159
F-1.280643243603211
s(g59
g11
tp160
F-0.00011624892569449251
s((I3
I3
tp161
g5
tp162
F-1.497092254437496
s(g157
g8
tp163
F1.8489341089535965e-06
s(g109
g11
tp164
F-1.3838543307626812
s(g41
g8
tp165
F2.817603380156954e-07
s(g97
g8
tp166
F-1.6376055916372863
s(g109
g8
tp167
F-1.6809190285965327
s(g124
g8
tp168
F-1.0016124475910508
s(g27
g5
tp169
F-1.215483642038879
s(g49
g8
tp170
F-1.6797431083580319
s((I5
I3
tp171
g8
tp172
F-0.16625313737495362
s((I4
I2
tp173
g5
tp174
F-1.172141241234602
s((I8
I-1
tp175
g8
tp176
F7.203845142823463e-07
s(g150
g11
tp177
F1.3105463595772008e-06
s(g101
g11
tp178
F1.0222155679978816e-05
s(g4
g11
tp179
F-1.8107171761142726
s(g150
g5
tp180
F0.0016192597688606182
s(g70
g8
tp181
F9.507591917355377e-06
s(g10
g5
tp182
I0
s((I8
I-3
tp183
g5
tp184
F1.757109475967871e-05
s(g146
g8
tp185
F-0.6342768752556369
s((I2
I2
tp186
g8
tp187
F-1.0699607871559274
s(g107
g8
tp188
F-1.9212851763340377
s((I5
I-4
tp189
g5
tp190
F-1.2160768263957833
s((I4
I-2
tp191
g8
tp192
F-1.7430921620230637
s(g119
g11
tp193
F-0.005922658681162289
s(g46
g5
tp194
F-0.7773347473099913
s(g49
g5
tp195
F-1.7638967375022259
s(g132
g5
tp196
F-1.692743626167889
s((I3
I-1
tp197
g11
tp198
F-1.189075788167875
s(g146
g5
tp199
I0
s(g171
g5
tp200
F-0.9702826494779461
s(g23
g11
tp201
F3.4825141157536264e-07
s(g39
g5
tp202
F0.00011240232186623774
s(g105
g5
tp203
F-0.9036019387257812
s(g186
g5
tp204
F-1.5357294409868703
s(g7
g5
tp205
F-0.0002573031056852752
s(g122
g5
tp206
F-1.4813895463173106
s(g144
g5
tp207
I0
s(g153
g8
tp208
F-0.2500733028340271
s(g67
g11
tp209
F-1.3645569831130169
s(g175
g11
tp210
F5.159458080404541e-07
s(g107
g11
tp211
F-1.9278400789007473
s(g13
g5
tp212
F8.035518154623569e-05
s(g82
g8
tp213
F-1.5588709339659284
s(g27
g8
tp214
F-0.5289514495488751
s(g53
g11
tp215
F-1.24496159720075
s(g114
g8
tp216
F-1.1531649764195115
s(g197
g5
tp217
F-1.0065803993203888
s(g142
g5
tp218
F-1.1550685107988
s(g99
g11
tp219
F1.3226452561472389e-05
s(g103
g11
tp220
F-1.4284551983358145
s(g161
g8
tp221
F-1.5483181948698168
s((I5
I-1
tp222
g5
tp223
F-1.637390376390819
s(g161
g11
tp224
F-1.493693750535542
s(g94
g11
tp225
F-0.5945440615728845
s(g10
g8
tp226
F-0.9357963616474821
s((I5
I0
tp227
g8
tp228
F-1.5583864589718004
s((I1
I-2
tp229
g11
tp230
F-0.6409455045388087
s(g126
g5
tp231
F0.00782359180069298
s(g229
g8
tp232
F-0.8910295224715428
s(g87
g11
tp233
F7.793824276967248e-06
s(g183
g11
tp234
F2.8209461781303443e-05
s(g25
g5
tp235
F1.3909843230116268e-05
s(g37
g11
tp236
F-1.8045204825544825e-05
s(g175
g5
tp237
F3.566255531223549e-05
s(g153
g11
tp238
F-0.42939464473030603
s(g89
g8
tp239
F2.22757674624434e-06
s(g222
g11
tp240
F-1.6543944803534205
s((I4
I0
tp241
g8
tp242
F-1.1987494169540405
s(g44
g8
tp243
F-0.6403694542471225
s(g51
g8
tp244
F-1.5724360216388933
s(g171
g11
tp245
F-1.407914303195888
s(g61
g11
tp246
F0.01371779922146148
s(g114
g11
tp247
F-0.2513070215562303
s(g99
g8
tp248
F4.0845035612786496e-05
s(g197
g8
tp249
F-1.4114906678246828
s(g53
g8
tp250
F-1.1596064451791592
s(g229
g5
tp251
I0
s(g126
g8
tp252
F7.400574993145473e-07
s(g23
g5
tp253
F1.4914427167554794e-05
s(g63
g5
tp254
F-1.415853738915828
s(g41
g11
tp255
F5.7418256847233726e-05
s(g222
g8
tp256
F-1.6113050468405785
s(g94
g8
tp257
F-0.9005818241975047
s(g191
g5
tp258
F-1.7556298256198901
s(g33
g8
tp259
F-1.5773221503653556
s((I2
I-2
tp260
g5
tp261
F-1.242109769347853
s(g37
g5
tp262
F1.7437707742263737e-05
s(g183
g8
tp263
F2.4454666439817147e-05
s(g29
g5
tp264
F-1.712635733240879
s(g31
g8
tp265
F-1.5574343650445799
s(g157
g5
tp266
F4.209898263278716e-06
s(g189
g8
tp267
F1.870675367481402e-05
s(g85
g8
tp268
F9.484490131240044e-06
s(g82
g5
tp269
F-1.0593938416567221
s(g260
g11
tp270
F-1.5256302614931245
s(g85
g11
tp271
F1.4040243133416221e-05
s(g97
g11
tp272
F-1.607714552417236
s(g91
g5
tp273
F6.828512263607068e-05
s(g51
g5
tp274
F-1.6220220336271234
s(g241
g5
tp275
F-1.0309962750556916
s(g44
g11
tp276
I0
s(g74
g5
tp277
F-1.8073249334999355
s(g144
g8
tp278
F-0.8686249587948698
s(g124
g5
tp279
F-0.6855510378408616
s(g241
g11
tp280
F-1.2414649909572038
s(g101
g5
tp281
F-2.5981314097210165e-06
s(g57
g5
tp282
F-1.6484788870556006
s(g142
g11
tp283
F-0.9876886888855485
s(g186
g11
tp284
F-1.16886220491602
s(g227
g11
tp285
F-1.6866138809784739
s(g33
g5
tp286
F-1.4871660673030969
s(g173
g8
tp287
F-1.3304987994219288
s(g227
g5
tp288
F-1.6598949180519993
s(g173
g11
tp289
F-1.393492418244439
s(g105
g8
tp290
F-1.2208313643546784
s(g89
g11
tp291
F3.2246801651425545e-06
s(g189
g11
tp292
F-0.8969586798809789
s(g260
g8
tp293
F-1.4148372147881414
s(g191
g11
tp294
F-1.778759903758602
stp295
Rp296
.