ccopy_reg
_reconstructor
p0
(cutil
Counter
p1
c__builtin__
dict
p2
(dp3
((I2
I-3
tp4
S'R'
p5
tp6
F0.050260311279062185
s((I9
I-2
tp7
g5
tp8
F1.5034926527909778e-07
s((I1
I3
tp9
S'L'
p10
tp11
F0.5172327623683914
s((I2
I1
tp12
g5
tp13
F1.214125996569178
s((I1
I4
tp14
g10
tp15
I0
s((I7
I-1
tp16
S'G'
p17
tp18
F0.004875873063763544
s((I1
I-4
tp19
S'G'
p20
tp21
I0
s((I9
I0
tp22
g17
tp23
F4.473620033501335e-06
s((I8
I4
tp24
g5
tp25
F2.231899235129355e-06
s((I7
I-3
tp26
g5
tp27
F1.3736172489821505e-06
s((I2
I4
tp28
g10
tp29
F1.8078341508901662e-05
s((I3
I4
tp30
g5
tp31
F0.0010634036385515522
s((I2
I3
tp32
g10
tp33
F0.0011656137197563646
s(g14
g5
tp34
I0
s((I6
I4
tp35
g10
tp36
F1.1906698456928365e-08
s((I7
I0
tp37
g10
tp38
F0.0025824615007723345
s(g35
g5
tp39
F0.00023932906155025045
s((I3
I-4
tp40
g17
tp41
F8.919812468649898e-05
s((I6
I-1
tp42
g5
tp43
F0.00228395779767722
s((I9
I2
tp44
g17
tp45
F1.9020572254337051e-06
s((I6
I-4
tp46
g5
tp47
F4.107810330928123e-06
s((I8
I0
tp48
g5
tp49
F0.0003806598757543229
s((I6
I-3
tp50
g5
tp51
F7.635331641521089e-05
s((I3
I-1
tp52
g5
tp53
F0.16321738447392162
s((I7
I-2
tp54
g17
tp55
F0.0012331028853538053
s((I9
I-3
tp56
g10
tp57
F3.252054500611554e-07
s((I1
I0
tp58
g5
tp59
F0.2811307548376217
s((I5
I-1
tp60
g5
tp61
F0.005740318591417229
s((I10
I4
tp62
g17
tp63
F3.551220791626633e-10
s((I3
I3
tp64
g10
tp65
F0.0013699275239851053
s((I6
I-2
tp66
g17
tp67
F0.00191828488305116
s((I2
I0
tp68
g17
tp69
F1.0431576462107035
s(g24
g17
tp70
F5.756309029516033e-07
s((I4
I-3
tp71
g10
tp72
F0.002696686333615407
s(g71
g17
tp73
F0.0003440701132371055
s((I3
I2
tp74
g10
tp75
F0.005639847005186559
s(g48
g17
tp76
F0.0621294112361611
s(g32
g17
tp77
F0.0007042846437063511
s((I10
I-4
tp78
g17
tp79
F3.7489115241046426e-10
s((I3
I0
tp80
g10
tp81
F0.22162257264214485
s((I9
I1
tp82
g10
tp83
F3.735461150294132e-06
s((I10
I0
tp84
g10
tp85
F1.0908626699513494e-07
s((I8
I3
tp86
g10
tp87
F5.898578259849632e-06
s((I7
I3
tp88
g17
tp89
F1.5285090925349373e-05
s((I4
I-4
tp90
g17
tp91
F2.1661010567812936e-05
s((I6
I0
tp92
g5
tp93
F0.019828684315284423
s(g30
g10
tp94
F0.000498694994321105
s(g30
g17
tp95
F5.381108146421247e-05
s(g56
g5
tp96
F2.6958415272781857e-08
s(g26
g17
tp97
F1.612555328695996e-05
s((I1
I-1
tp98
g17
tp99
F1.0149101361543382
s((I4
I4
tp100
g5
tp101
F0.00015361551357836892
s((I6
I1
tp102
g17
tp103
F0.017742588459764858
s((I8
I-1
tp104
g17
tp105
F0.0028161774584659605
s((I10
I1
tp106
g10
tp107
F7.515793783853453e-08
s(g62
g5
tp108
F1.1984326021720632e-10
s(g106
g5
tp109
F4.096062168813473e-06
s(g64
g17
tp110
F0.0008734721122664181
s(g4
g10
tp111
F0.9192738984931652
s(g88
g5
tp112
F0.0016073448700612107
s(g58
g17
tp113
F1.0071380911860965
s((I5
I-4
tp114
g5
tp115
F4.6421340273348325e-05
s((I4
I-1
tp116
g17
tp117
F0.05885449188624277
s(g42
g10
tp118
F0.011670795250028964
s(g28
g5
tp119
F0.003019722689911592
s(g71
g5
tp120
F0.0003337590102966731
s(g50
g17
tp121
F6.385714548862802e-05
s((I5
I4
tp122
g10
tp123
F4.283252319832295e-05
s((I7
I2
tp124
g10
tp125
F0.00010874532927249396
s((I5
I3
tp126
g5
tp127
F0.0035437391665698497
s((I2
I-2
tp128
g5
tp129
F0.17748467600801734
s((I2
I2
tp130
g5
tp131
F0.4879960317282252
s((I6
I2
tp132
g5
tp133
F0.0069975455141526
s((I9
I4
tp134
g10
tp135
F1.5974125750171493e-07
s(g134
g5
tp136
F9.18512545416073e-05
s(g58
g10
tp137
F0.9955600719510673
s((I5
I2
tp138
g17
tp139
F0.0028446544172329004
s((I10
I3
tp140
g5
tp141
F4.487757291520978e-08
s(g90
g10
tp142
F0.001070856960892409
s((I5
I-2
tp143
g5
tp144
F0.0025135477893099382
s((I1
I1
tp145
g10
tp146
F0.22230129093423873
s((I5
I0
tp147
g17
tp148
F0.11397279551744978
s((I1
I-2
tp149
g10
tp150
F0.6819310163734829
s(g149
g17
tp151
F0.001699706331670907
s(g145
g17
tp152
F1.0095543425805653
s(g92
g10
tp153
F0.00909678930822649
s((I10
I-1
tp154
g10
tp155
F6.635166173521524e-08
s(g143
g10
tp156
F0.012654889149472262
s((I7
I-4
tp157
g5
tp158
F1.554816858121252e-05
s(g12
g17
tp159
F1.108376950107386
s((I5
I-3
tp160
g10
tp161
F0.0062468515489719455
s(g106
g17
tp162
F3.548656265114011e-08
s((I8
I1
tp163
g17
tp164
F0.0006079296083121735
s((I10
I-3
tp165
g17
tp166
F6.0457153677028706e-09
s(g149
g5
tp167
F0.09244421027082966
s((I7
I4
tp168
g17
tp169
F6.97533155416611e-07
s((I8
I-2
tp170
g5
tp171
F0.00018606978695790062
s(g143
g17
tp172
F0.0034511081002392583
s((I10
I2
tp173
g5
tp174
F1.0453910617681246e-07
s((I4
I-2
tp175
g5
tp176
F0.005975303022943933
s((I8
I-3
tp177
g17
tp178
F1.2315566461661577e-05
s(g50
g10
tp179
F0.00027149653825790264
s((I9
I-1
tp180
g10
tp181
F0.00015028673413712361
s((I3
I-2
tp182
g10
tp183
F0.10617974490842583
s(g86
g5
tp184
F3.056614325252915e-05
s((I3
I-3
tp185
g5
tp186
F0.0007793515007761506
s(g82
g17
tp187
F0.004819191778593216
s((I4
I0
tp188
g5
tp189
F0.08121798152593634
s(g84
g17
tp190
F0.00012568726884748863
s(g12
g10
tp191
F0.46961477206301755
s((I2
I-4
tp192
g5
tp193
F6.37792173076272e-05
s((I1
I2
tp194
g17
tp195
F0.02550363841383599
s(g80
g5
tp196
F0.2186274972447309
s(g104
g5
tp197
F6.272794310767781e-05
s(g54
g5
tp198
F0.0002640476483293813
s(g32
g5
tp199
F0.396630141280271
s(g80
g17
tp200
F1.2040762105447667
s((I2
I2
tp201
g10
tp202
F0.06920167745264881
s(g78
g5
tp203
F4.1263994566167004e-10
s((I7
I1
tp204
g10
tp205
F0.0005025758216906182
s((I4
I2
tp206
g17
tp207
F0.005289094170481328
s(g147
g5
tp208
F0.04501330524971449
s(g206
g10
tp209
F0.003048310559722967
s(g132
g17
tp210
F0.0013172844066567727
s((I8
I2
tp211
g17
tp212
F0.0002442511119778735
s(g16
g5
tp213
F0.0005312399114187499
s(g211
g10
tp214
F2.4401959280534262e-05
s((I9
I-4
tp215
g17
tp216
F2.5316918017313686e-08
s(g170
g17
tp217
F0.00020622324804167076
s((I8
I-4
tp218
g10
tp219
F1.5705263143635795e-07
s(g100
g10
tp220
F0.00026045168469672567
s(g40
g10
tp221
F4.832095832279241e-08
s((I4
I3
tp222
g10
tp223
F0.001028364608372735
s((I5
I1
tp224
g10
tp225
F0.010877254990910672
s(g204
g17
tp226
F0.004058572964082727
s(g206
g5
tp227
F0.02838321975330549
s(g168
g5
tp228
F2.0649141563947842e-05
s(g222
g5
tp229
F0.0166782905851095
s(g44
g5
tp230
F0.0017588419341555961
s(g24
g10
tp231
F3.6338963315755074e-07
s(g185
g10
tp232
F0.0021197596887589905
s((I3
I1
tp233
g5
tp234
F0.7278779608251407
s((I9
I3
tp235
g10
tp236
F5.4870772475859105e-05
s(g124
g5
tp237
F0.005146878322555058
s(g188
g17
tp238
F0.07202168270455263
s(g74
g17
tp239
F0.004891570079043781
s(g37
g5
tp240
F0.0013576441443809615
s(g116
g5
tp241
F0.012042789817866701
s(g192
g17
tp242
F0.00014329001166731955
s((I1
I-3
tp243
g17
tp244
I0
s(g192
g10
tp245
F0.12670902099893214
s(g82
g5
tp246
F9.394355642553292e-05
s((I10
I-2
tp247
g5
tp248
F1.0307217637192455e-08
s(g243
g10
tp249
F0.14899473487828666
s(g138
g10
tp250
F0.0027912727997939563
s(g218
g17
tp251
F1.6241668144095288e-07
s(g86
g17
tp252
F1.1818895654092053e-05
s(g145
g5
tp253
F0.9636677210885369
s(g102
g10
tp254
F0.0037657588095627286
s(g163
g5
tp255
F0.08621071388126228
s(g90
g5
tp256
F0.0001369962210799136
s((I2
I-1
tp257
g10
tp258
F1.2126809011925945
s(g182
g17
tp259
F0.005775568527122326
s(g7
g10
tp260
F0.0001200849583528504
s(g16
g10
tp261
F0.008009771286195247
s((I9
I0
tp262
g5
tp263
F1.2800738441515785e-06
s(g37
g17
tp264
F0.3728242948761178
s(g19
S'L'
p265
tp266
I0
s(g160
g5
tp267
F0.00032102788656182183
s(g243
g5
tp268
I0
s(g19
S'R'
p269
tp270
F8.706772663465838e-05
s(g154
g5
tp271
F4.662619406451965e-08
s(g132
g10
tp272
F0.00034242447777392104
s((I4
I1
tp273
g10
tp274
F0.03361407756690371
s(g168
g10
tp275
F5.728906714254354e-07
s(g257
g5
tp276
F0.6836587935126763
s(g124
g17
tp277
F0.000233241235363827
s(g4
g17
tp278
F5.1969015936534715e-05
s(g157
g17
tp279
F3.250482139139342e-08
s(g66
g5
tp280
F0.0014469880899411068
s(g273
g17
tp281
F0.11609909966912042
s(g175
g17
tp282
F0.005973741912109129
s(g122
g17
tp283
F3.0526918958563837e-06
s(g247
g10
tp284
F7.49365606279146e-06
s(g128
g17
tp285
F0.014831067830604762
s(g194
g10
tp286
F0.00011034270539573601
s(g66
g10
tp287
F0.015195237138012518
s(g134
g17
tp288
F6.931322329881805e-09
s(g122
g5
tp289
F0.00011432898959511456
s(g165
g10
tp290
F8.529812321511649e-07
s((I6
I3
tp291
g10
tp292
F5.1902250478523975e-05
s(g98
g5
tp293
F0.21094390776352626
s(g291
g17
tp294
F6.0614280368844975e-05
s(g60
g10
tp295
F0.026057728350528265
s(g180
g17
tp296
F7.660770384383377e-07
s(g64
g5
tp297
F0.008415953450188935
s(g60
g17
tp298
F0.09058052993460494
s(g7
g17
tp299
F1.3988665722453227e-07
s(g78
g10
tp300
F4.8806717439811605e-09
s(g68
g10
tp301
F1.1071191468449793
s(g140
g17
tp302
F7.4119268359959e-10
s(g28
g17
tp303
F3.036204878591311e-06
s(g98
g10
tp304
F0.699456505807653
s(g126
g17
tp305
F0.00014768764526570602
s(g88
g10
tp306
F2.2928788411293785e-05
s(g84
g5
tp307
F1.0711344284628641e-07
s(g54
g10
tp308
F0.0025466442076649033
s(g35
g17
tp309
F1.2373190656507575e-05
s(g9
g5
tp310
F8.528581914140626e-06
s(g177
g5
tp311
F1.371240551330378e-07
s(g130
g17
tp312
F0.055805483000870716
s(g235
g5
tp313
F0.0006293816371444709
s(g173
g17
tp314
F7.555196777370635e-09
s(g44
g10
tp315
F1.0303148047004152e-06
s(g52
g10
tp316
F0.23475137827050013
s(g170
g10
tp317
F0.0007428144572698979
s(g56
g17
tp318
F3.338946296400514e-08
s(g194
g5
tp319
F1.0621755291364985
s(g215
g10
tp320
F3.2417411282494064e-08
s(g92
g17
tp321
F0.08170135513362065
s(g116
g10
tp322
F0.1529593727670138
s(g180
g5
tp323
F2.9072340210207256e-07
s(g104
g10
tp324
F0.0007815750168828645
s(g100
g17
tp325
F7.219233242458973e-05
s(g233
g10
tp326
F0.14883672242496915
s(g160
g17
tp327
F6.957985281578176e-05
s(g68
g5
tp328
F0.49748704703769636
s(g163
g10
tp329
F9.136909665664291e-05
s((I3
I-2
tp330
g5
tp331
F0.03144168535717777
s(g42
g17
tp332
F0.026811504357240976
s(g52
g17
tp333
F0.15069608789709382
s(g9
g17
tp334
F2.1300727852697038e-05
s(g185
g17
tp335
F4.9565888368237375e-05
s(g235
g17
tp336
F2.8518570448275897e-07
s(g48
g10
tp337
F0.0004490086604443821
s(g177
g10
tp338
F0.00010195663252142312
s(g218
g5
tp339
F6.227464023692134e-07
s(g224
g5
tp340
F0.16652556859023904
s(g215
g5
tp341
F2.255181159860108e-08
s(g102
g5
tp342
F0.026742230225393994
s((I10
I4
tp343
g10
tp344
F1.5422620969598075e-09
s(g211
g5
tp345
F0.005767580198729183
s(g22
g10
tp346
F0.0004575359072699742
s(g126
g10
tp347
F0.00021212004176372239
s(g157
g10
tp348
F1.4074466556933755e-06
s(g233
g17
tp349
F0.22171971151691336
s(g74
g5
tp350
F0.689800222584751
s(g224
g17
tp351
F0.023678727352849052
s(g26
g10
tp352
F0.0016284756545695983
s(g204
g5
tp353
F0.019030298409317567
s(g173
g10
tp354
F1.1388945372663356e-08
s(g40
g5
tp355
F0.0002796078157865868
s(g222
g17
tp356
F0.0007352984247684303
s(g291
g5
tp357
F0.00021301939784462205
s(g114
g17
tp358
F9.061259849942575e-07
s(g46
g17
tp359
F1.8460204114818015e-06
s(g138
g5
tp360
F0.03789141241442425
s(g128
g10
tp361
F1.1258376939736545
s(g46
g10
tp362
F0.0001586805689446438
s(g247
g17
tp363
F1.4086056896662238e-08
s(g14
g17
tp364
F0.0011944052527501736
s(g188
g10
tp365
F0.10049206304759596
s(g147
g10
tp366
F0.014905355614744266
s(g257
g17
tp367
F1.1312532939408104
s(g154
g17
tp368
F1.1868476983385864e-06
s(g140
g10
tp369
F5.993509312134415e-10
s(g114
g10
tp370
F0.000555091634247232
s(g165
g5
tp371
F3.671239678872567e-09
s(g273
g5
tp372
F0.10921752079096385
s(g175
g10
tp373
F0.14258338283254088
stp374
Rp375
.