ccopy_reg
_reconstructor
p0
(cutil
Counter
p1
c__builtin__
dict
p2
(dp3
((I2
I-3
tp4
S'R'
p5
tp6
I0
s((I9
I-1
tp7
g5
tp8
F1.2499734117896892
s((I2
I1
tp9
g5
tp10
I0
s((I1
I4
tp11
S'L'
p12
tp13
I0
s((I7
I-2
tp14
S'G'
p15
tp16
F0.3052564073568588
s((I1
I-4
tp17
S'G'
p18
tp19
I0
s((I9
I0
tp20
g15
tp21
F1.2481665911571085
s((I8
I4
tp22
g5
tp23
F0.1834565033125389
s((I7
I-3
tp24
g5
tp25
F0.04628457965746224
s((I2
I4
tp26
g12
tp27
I0
s((I3
I4
tp28
g5
tp29
I0
s((I1
I1
tp30
g15
tp31
I0
s(g11
g5
tp32
I0
s((I6
I4
tp33
g12
tp34
F0.026966853014905062
s((I7
I0
tp35
g12
tp36
F1.2479180014004476
s(g33
g5
tp37
F0.15653366785241954
s((I3
I-4
tp38
g15
tp39
I0
s((I6
I-1
tp40
g5
tp41
F1.2435670165110455
s((I9
I2
tp42
g15
tp43
F0.9568197017153596
s((I6
I-4
tp44
g5
tp45
F0.023685757763909975
s((I8
I0
tp46
g5
tp47
F1.2495728179541135
s((I6
I-3
tp48
g5
tp49
F0.12072797832303282
s((I3
I3
tp50
g15
tp51
I0
s((I7
I-1
tp52
g15
tp53
F1.2078760666682202
s((I9
I-3
tp54
g12
tp55
F0.9940115265931259
s((I1
I0
tp56
g5
tp57
I0
s((I5
I-1
tp58
g5
tp59
F1.2288167152212748
s((I10
I4
tp60
g15
tp61
F0.02835247549715727
s(g50
g12
tp62
I0
s((I6
I-2
tp63
g15
tp64
F0.20950606788848558
s((I3
I0
tp65
g12
tp66
I0
s(g22
g15
tp67
F0.04021388416721654
s((I4
I-3
tp68
g12
tp69
F1.1840684316408394
s(g68
g15
tp70
F0.032424523928398535
s((I3
I2
tp71
g12
tp72
I0
s(g46
g15
tp73
F1.214060485330518
s((I2
I3
tp74
g15
tp75
F0.01384211877516749
s((I10
I-4
tp76
g15
tp77
F0.033183368543519276
s((I2
I0
tp78
g15
tp79
I0
s((I9
I1
tp80
g12
tp81
F1.249980063067357
s((I10
I0
tp82
g12
tp83
F1.2499979511339885
s((I8
I3
tp84
g12
tp85
F0.08533539832101522
s((I7
I3
tp86
g15
tp87
F0.14922363348216444
s((I4
I-4
tp88
g15
tp89
F0.020627064485243363
s((I6
I0
tp90
g5
tp91
F1.2360309467674337
s(g28
g12
tp92
F0.003184920190055153
s(g28
g15
tp93
I0
s(g54
g5
tp94
F0.11302446496462981
s(g24
g15
tp95
F0.1278620456525703
s(g46
g12
tp96
F1.249918974455469
s((I4
I4
tp97
g5
tp98
I0
s((I6
I1
tp99
g15
tp100
F1.1794412526616305
s((I8
I-2
tp101
g15
tp102
F1.078943075353204
s((I10
I1
tp103
g12
tp104
F1.2499999786741158
s(g60
g5
tp105
F0.1525642017353463
s(g103
g5
tp106
F1.249999702653041
s(g4
g12
tp107
F0.0
s(g86
g5
tp108
F1.089394736032864
s(g56
g15
tp109
I0
s((I5
I-4
tp110
g5
tp111
F0.017120231142673706
s((I4
I-1
tp112
g15
tp113
F0.7205502508244026
s(g63
g12
tp114
F1.2349846100818325
s(g26
g5
tp115
I0
s(g68
g5
tp116
F0.031157009410705063
s((I10
I-2
tp117
g12
tp118
F1.2499998470700073
s((I5
I4
tp119
g12
tp120
F0.03324824105263942
s(g99
g5
tp121
F1.2328106344243275
s((I2
I-2
tp122
g5
tp123
I0
s((I2
I2
tp124
g5
tp125
I0
s((I6
I2
tp126
g5
tp127
F1.2400140195973095
s((I9
I4
tp128
g12
tp129
F0.031664469829706596
s((I4
I1
tp130
g5
tp131
F1.004296875
s(g128
g5
tp132
F0.190243868092681
s(g56
g12
tp133
I0
s((I5
I2
tp134
g15
tp135
F0.6573333897210822
s((I10
I3
tp136
g5
tp137
F1.206985012043964
s(g88
g12
tp138
F0.029220909154560444
s((I5
I-2
tp139
g5
tp140
F0.16623769340413866
s(g30
g12
tp141
I0
s((I5
I0
tp142
g15
tp143
F1.0015152433204162
s((I7
I2
tp144
g5
tp145
F1.2474283126292758
s((I2
I3
tp146
S'L'
p147
tp148
I0
s(g90
g12
tp149
F1.221918845258376
s((I10
I-1
tp150
g12
tp151
F1.249999805367405
s(g58
g12
tp152
F1.1438444658824993
s((I4
I0
tp153
g15
tp154
F0.985319368545833
s(g9
g15
tp155
I0
s((I5
I-3
tp156
g12
tp157
F1.2224047412568262
s(g103
g15
tp158
F1.2499994630545743
s((I8
I1
tp159
g15
tp160
F1.2449954925843327
s(g50
g5
tp161
I0
s((I7
I4
tp162
g15
tp163
F0.039184322291577645
s(g101
g5
tp164
F0.7868282831161737
s(g24
g12
tp165
F1.1531569461196571
s(g58
g15
tp166
F1.1519693728895384
s((I10
I2
tp167
g5
tp168
F1.2499999301897788
s((I4
I-2
tp169
g5
tp170
F0.1370303768454648
s((I8
I-3
tp171
g15
tp172
F0.1366154991927275
s(g48
g12
tp173
F1.0273379934335582
s((I9
I-2
tp174
g12
tp175
F1.2499988527465522
s(g84
g5
tp176
F1.0726102668354138
s((I3
I-3
tp177
g5
tp178
I0
s(g80
g15
tp179
F1.2496331943794732
s((I7
I-4
tp180
g15
tp181
F0.03463180818230999
s(g82
g15
tp182
F1.2499996112265919
s(g9
g12
tp183
I0
s((I2
I-4
tp184
g5
tp185
I0
s((I1
I2
tp186
g18
tp187
I0
s(g65
g5
tp188
I0
s((I8
I-1
tp189
g5
tp190
F1.2498738751404317
s((I7
I-2
tp191
g5
tp192
F0.7053789690489272
s(g146
S'R'
p193
tp194
I0
s(g65
g15
tp195
I0
s(g124
g12
tp196
I0
s(g76
g5
tp197
F0.03614905883260965
s((I5
I1
tp198
g5
tp199
F1.133239137586505
s((I4
I2
tp200
g15
tp201
F0.022590047988457124
s(g142
g5
tp202
F1.0955187127075376
s(g200
g12
tp203
F0.18924080473288474
s(g126
g15
tp204
F0.31845304816538994
s((I8
I2
tp205
g15
tp206
F0.8621840069942546
s(g52
g5
tp207
F1.247111366380747
s(g205
g12
tp208
F0.2305429741314684
s((I9
I-4
tp209
g15
tp210
F0.029803825212515858
s(g189
g15
tp211
F1.2325570808376105
s((I8
I-4
tp212
g12
tp213
F0.053547673626487644
s(g97
g12
tp214
I0
s(g38
g12
tp215
F0.006044454555723164
s((I4
I3
tp216
g12
tp217
F0.011386453945036831
s((I7
I1
tp218
g5
tp219
F1.2470155054801915
s(g218
g15
tp220
F1.1720375443697346
s(g200
g5
tp221
F1.100975688592575
s(g177
g15
tp222
I0
s(g216
g5
tp223
F0.31378492706360916
s(g42
g5
tp224
F1.24999947114597
s(g22
g12
tp225
F0.031223989884973047
s(g177
g12
tp226
I0
s((I3
I1
tp227
g5
tp228
I0
s((I9
I3
tp229
g12
tp230
F0.03398312999929978
s(g180
g5
tp231
F0.03586471683661822
s(g71
g15
tp232
I0
s(g35
g5
tp233
F1.2440904344527943
s(g112
g5
tp234
F1.2027402272111096
s(g184
g15
tp235
I0
s(g184
g12
tp236
I0
s(g80
g5
tp237
F1.2499975201152758
s(g134
g12
tp238
F0.20343494106842036
s(g212
g15
tp239
F0.03551535142848694
s(g84
g15
tp240
F0.15655206363365215
s(g30
g5
tp241
I0
s(g99
g12
tp242
F1.217740336259229
s(g159
g5
tp243
F1.2495730298824834
s(g88
g5
tp244
F0.003509868744524943
s((I2
I-1
tp245
g12
tp246
I0
s((I3
I-2
tp247
g15
tp248
I0
s(g7
g12
tp249
F1.249999062874001
s(g14
g12
tp250
F1.2486677792542662
s(g20
g5
tp251
F1.249987124822841
s(g35
g15
tp252
F1.0002393575262514
s(g17
g147
tp253
I0
s(g156
g5
tp254
F0.03867946971189763
s(g17
g193
tp255
I0
s(g150
g5
tp256
F1.2499998823936191
s(g126
g12
tp257
F0.3629441556836457
s(g130
g12
tp258
F1.2108867030235055
s(g162
g12
tp259
F0.03698178357891502
s(g245
g5
tp260
I0
s(g144
g15
tp261
F0.9588416960493573
s(g4
g15
tp262
I0
s(g48
g15
tp263
F0.028512274329047106
s(g247
g5
tp264
I0
s(g153
g5
tp265
F1.0001452718621027
s(g63
g5
tp266
F0.9981044976171263
s(g169
g15
tp267
F0.03593201411769821
s(g119
g15
tp268
F0.01823063796956161
s(g122
g15
tp269
I0
s(g186
g147
tp270
I0
s(g40
g12
tp271
F1.2174628799183649
s(g128
g15
tp272
F0.03377147143428226
s(g119
g5
tp273
I0
s((I10
I-3
tp274
g12
tp275
F0.9968450750111411
s((I6
I3
tp276
g12
tp277
F0.035370803020772876
s(g144
g12
tp278
F0.22426245330964661
s(g276
g15
tp279
F0.015781071643487705
s(g139
g12
tp280
F1.2059040751834214
s((I3
I-1
tp281
g15
tp282
F0.005081282582028827
s(g139
g15
tp283
F0.09432839989463657
s(g174
g15
tp284
F1.2474253710413177
s(g76
g12
tp285
F0.23539063911389596
s(g78
g12
tp286
I0
s(g274
g15
tp287
F0.14095595976913924
s(g136
g15
tp288
F0.19173632068344276
s(g26
g15
tp289
F0.015152433786239934
s((I5
I3
tp290
g15
tp291
F0.0369030123226709
s(g86
g12
tp292
F0.156968542711363
s(g82
g5
tp293
F1.2499980498811574
s(g52
g12
tp294
F1.2478364351489393
s(g33
g15
tp295
F0.037980111384320725
s(g281
g12
tp296
I0
s(g171
g5
tp297
F0.07252305254542568
s(g124
g15
tp298
F0.01699933242565755
s(g229
g5
tp299
F1.1855414078216564
s(g167
g15
tp300
F0.7074289584067759
s(g42
g12
tp301
F0.34137619025511723
s(g247
g12
tp302
I0
s(g101
g12
tp303
F1.2497412021372574
s(g54
g15
tp304
F0.17770739451833362
s(g186
g193
tp305
F0.0
s(g209
g12
tp306
F0.2113721900964196
s(g90
g15
tp307
F0.9375
s(g112
g12
tp308
F0.9990234375
s(g174
g5
tp309
F1.1641955380025268
s(g189
g12
tp310
F1.2493477576770644
s(g97
g15
tp311
F0.028766344940945786
s(g227
g12
tp312
F0.5
s(g156
g15
tp313
F0.03259034251620754
s(g78
g5
tp314
I0
s(g159
g12
tp315
F1.249928359113325
s(g281
g5
tp316
I0
s(g40
g15
tp317
F1.183434803227122
s(g162
g5
tp318
F0.15553205748555976
s(g229
g15
tp319
F0.15456928636276068
s(g117
g5
tp320
F1.0174693347791226
s(g171
g12
tp321
F0.8890627825051278
s(g212
g5
tp322
F0.03463990806459729
s(g218
g12
tp323
F1.2493730652355535
s(g209
g5
tp324
F0.031782949182701234
s(g290
g5
tp325
F0.40009261350570674
s(g60
g12
tp326
F0.034884028481567304
s(g205
g5
tp327
F1.2496694770050212
s(g20
g12
tp328
F1.2499992360743235
s(g290
g12
tp329
F0.025898344185788933
s(g180
g12
tp330
F0.13351169097620116
s(g227
g15
tp331
I0
s(g71
g5
tp332
F0.5
s(g198
g15
tp333
F1.1279639464009925
s(g130
g15
tp334
F0.5192444908940471
s(g198
g12
tp335
F1.2348425562244434
s(g167
g12
tp336
F0.4819990754834458
s(g38
g5
tp337
I0
s(g216
g15
tp338
F0.02772918069774767
s(g276
g5
tp339
F1.186083452086181
s(g110
g15
tp340
F0.031120396733368104
s(g44
g15
tp341
F0.02842722265096835
s(g134
g5
tp342
F1.2226731124568069
s(g122
g12
tp343
I0
s(g44
g12
tp344
F0.19703028127526312
s(g117
g15
tp345
F1.1215931622772448
s(g11
g15
tp346
I0
s(g153
g12
tp347
F1.0969957562340613
s(g142
g12
tp348
F1.124205852130733
s(g7
g15
tp349
F1.2350918674855094
s(g150
g15
tp350
F1.2499999808652245
s(g136
g12
tp351
F0.09628573881447783
s(g110
g12
tp352
F0.207570616596368
s(g274
g5
tp353
F0.06168809192227345
s(g245
g15
tp354
I0
s(g169
g12
tp355
F1.002031836815364
stp356
Rp357
.