(dp0
(S'alg1'
p1
I0
tp2
cnumpy.core.multiarray
scalar
p3
(cnumpy
dtype
p4
(S'f8'
p5
I0
I1
tp6
Rp7
(I3
S'<'
p8
NNNI-1
I-1
I0
tp9
bS'h\xae\xd3HK\xe5\xe2?'
p10
tp11
Rp12
s(S'random'
p13
I0
tp14
g3
(g7
S'Z9\xb4\xc8v>\x1a@'
p15
tp16
Rp17
s(S'nq'
p18
I0
tp19
g3
(g7
S'Z9\xb4\xc8v>\x1a@'
p20
tp21
Rp22
s(S'chain'
p23
I0
tp24
g3
(g7
S'h\xae\xd3HK\xe5\xe2?'
p25
tp26
Rp27
s(S'brute'
p28
I0
tp29
g3
(g7
S'h\xae\xd3HK\xe5\xe2?'
p30
tp31
Rp32
s.