(dp0
(S'alg1'
p1
I0
tp2
F0.793834924697876
s(S'random'
p3
I0
tp4
F0.33855295181274414
s(S'nq'
p5
I0
tp6
F0.35108208656311035
s(S'chain'
p7
I0
tp8
F0.919780969619751
s(S'brute'
p9
I0
tp10
F1.7700541019439697
s.