(dp0
(S'brute'
p1
I1
tp2
F0.054162025451660156
s(S'chain'
p3
I9
tp4
F0.023429155349731445
s(g3
I6
tp5
F0.02308797836303711
s(S'alg1'
p6
I7
tp7
F0.0012369155883789062
s(g6
I8
tp8
F0.0035598278045654297
s(S'random'
p9
I2
tp10
F0.07298898696899414
s(S'nq'
p11
I6
tp12
F0.011116981506347656
s(g1
I5
tp13
F0.6042180061340332
s(g3
I2
tp14
F0.14612698554992676
s(g11
I2
tp15
F0.40114784240722656
s(g1
I9
tp16
F0.007117033004760742
s(g11
I9
tp17
F0.007887125015258789
s(g6
I6
tp18
F0.0075109004974365234
s(g1
I6
tp19
F0.006994009017944336
s(g3
I7
tp20
F0.0030210018157958984
s(g9
I5
tp21
F0.06124997138977051
s(g11
I5
tp22
F0.0679008960723877
s(g1
I4
tp23
F0.9792888164520264
s(g6
I5
tp24
F0.1835789680480957
s(g3
I3
tp25
F0.0030350685119628906
s(g9
I1
tp26
F0.0174410343170166
s(g1
I0
tp27
F0.5054750442504883
s(g1
I8
tp28
F0.0035750865936279297
s(g11
I8
tp29
F0.003931999206542969
s(g11
I1
tp30
F0.01800084114074707
s(g3
I4
tp31
F0.2953150272369385
s(g9
I4
tp32
F0.09854698181152344
s(g11
I4
tp33
F0.09970688819885254
s(g1
I3
tp34
F0.001252889633178711
s(g9
I9
tp35
F0.007109880447387695
s(g3
I0
tp36
F0.15200591087341309
s(g6
I3
tp37
F0.0012450218200683594
s(g9
I0
tp38
F0.05673098564147949
s(g11
I0
tp39
F0.05167818069458008
s(g6
I1
tp40
F0.0546870231628418
s(g6
I4
tp41
F0.29683589935302734
s(g3
I5
tp42
F0.1826779842376709
s(g9
I7
tp43
F0.0012311935424804688
s(g1
I2
tp44
F0.7211980819702148
s(g3
I8
tp45
F0.013079166412353516
s(g9
I8
tp46
F0.0036749839782714844
s(g3
I1
tp47
F0.054808855056762695
s(g6
I9
tp48
F0.007654905319213867
s(g9
I3
tp49
F0.0012331008911132812
s(g11
I7
tp50
F0.0015718936920166016
s(g6
I0
tp51
F0.15464282035827637
s(g1
I7
tp52
F0.0013959407806396484
s(g11
I3
tp53
F0.0013768672943115234
s(g6
I2
tp54
F0.2228538990020752
s(g9
I6
tp55
F0.007035970687866211
s.