(lp0
(lp1
F0.035
aF0.017
aF0.948
aF0.892
aF0.181
aF0.9
aa(lp2
F0.0
aF0.227
aF0.773
aF0.9
aF0.134
aF0.618
aa(lp3
F0.395
aF0.098
aF0.506
aF0.189
aF0.1
aF0.407
aa(lp4
F0.312
aF0.18
aF0.508
aF0.148
aF0.1
aF0.57
aa.