ccopy_reg
_reconstructor
p0
(cutil
Counter
p1
c__builtin__
dict
p2
(dp3
(I0
I1
tp4
F0.6561000000000001
s(I1
I2
tp5
F0.81
s(I3
I2
tp6
F1.0
s(I0
I0
tp7
F0.5904900000000002
s(I3
I0
tp8
F0.81
s(I3
I1
tp9
F0.9
s(I2
I1
tp10
F0.81
s(I2
I0
tp11
F0.7290000000000001
s(I2
I2
tp12
F0.9
s(I1
I0
tp13
F0.6561000000000001
sS'TERMINAL_STATE'
p14
I0
s(I0
I2
tp15
F0.7290000000000001
stp16
Rp17
.