ccopy_reg
_reconstructor
p0
(cutil
Counter
p1
c__builtin__
dict
p2
(dp3
((I2
I-3
tp4
S'R'
p5
tp6
I0
s((I9
I-2
tp7
g5
tp8
F0.28863928353794766
s((I6
I2
tp9
S'G'
p10
tp11
F0.10082432103394401
s((I1
I3
tp12
S'L'
p13
tp14
I0
s((I8
I2
tp15
g10
tp16
F0.32653721888441234
s((I7
I-2
tp17
g5
tp18
F0.25117770253143057
s(g15
g13
tp19
F0.6315708961024648
s((I1
I4
tp20
g13
tp21
I0
s((I9
I-4
tp22
g10
tp23
F0.02155425161473014
s((I7
I-1
tp24
g10
tp25
F0.8512782943780733
s((I8
I-2
tp26
g10
tp27
F0.36270541085676067
s((I8
I-4
tp28
g13
tp29
F0.06381038708155162
s((I4
I4
tp30
g13
tp31
I0
s((I3
I-4
tp32
g13
tp33
I0
s((I9
I0
tp34
g10
tp35
F1.2264102371281465
s((I4
I3
tp36
g13
tp37
F0.0036088109699351075
s((I7
I1
tp38
g5
tp39
F1.2378014863244198
s((I8
I4
tp40
g5
tp41
F0.1269165575965659
s(g38
g10
tp42
F1.083791213141067
s((I4
I2
tp43
g5
tp44
I0
s((I7
I-3
tp45
g5
tp46
F0.01259926953646508
s(g36
g5
tp47
F0.40923459824465186
s((I2
I1
tp48
g5
tp49
I0
s((I5
I4
tp50
g13
tp51
I0
s(g40
g13
tp52
F0.014937729415230505
s((I2
I4
tp53
g13
tp54
I0
s((I10
I-1
tp55
g5
tp56
F1.2499084219052674
s((I3
I-3
tp57
g13
tp58
I0
s((I3
I1
tp59
g5
tp60
I0
s((I3
I4
tp61
g5
tp62
I0
s((I9
I3
tp63
g13
tp64
F0.07212861213765023
s((I2
I3
tp65
g13
tp66
I0
s((I7
I2
tp67
g5
tp68
F1.2478069813338175
s((I7
I-4
tp69
g5
tp70
I0
s((I3
I2
tp71
g10
tp72
I0
s((I7
I0
tp73
g5
tp74
F1.2448372810806878
s((I4
I-2
tp75
g5
tp76
F0.06949104449782202
s((I2
I-4
tp77
g10
tp78
I0
s((I6
I4
tp79
g13
tp80
F0.01576725515210696
s((I1
I-3
tp81
g10
tp82
I0
s(g77
g13
tp83
I0
s((I9
I1
tp84
g5
tp85
F1.2499730039061867
s(g73
g13
tp86
F1.088172266591572
s(g81
g13
tp87
I0
s(g79
g5
tp88
I0
s(g32
g10
tp89
I0
s((I6
I-1
tp90
g5
tp91
F1.1288592344243762
s((I5
I2
tp92
g13
tp93
F0.15528521316679555
s((I9
I2
tp94
g10
tp95
F0.9460187731320138
s(g28
g10
tp96
I0
s((I6
I-4
tp97
g5
tp98
F0.0
s((I8
I0
tp99
g5
tp100
F1.1706785326322025
s((I6
I-3
tp101
g5
tp102
I0
s((I8
I3
tp103
g10
tp104
F0.039012747958565144
s((I6
I-2
tp105
g10
tp106
F0.5238611622054943
s((I6
I1
tp107
g13
tp108
F1.2262665888116882
s((I3
I3
tp109
g10
tp110
I0
s((I8
I1
tp111
g5
tp112
F1.1430313414906839
s(g17
g10
tp113
F0.4477835046637983
s((I4
I-4
tp114
g5
tp115
I0
s((I9
I-3
tp116
g13
tp117
F0.8206734429267806
s((I2
I-2
tp118
g13
tp119
I0
s((I5
I-2
tp120
g5
tp121
I0
s((I3
I-2
tp122
g10
tp123
I0
s((I9
I-1
tp124
g13
tp125
F1.2495029124076482
s(g24
g13
tp126
F1.055155208722121
s(g34
g5
tp127
F1.2491979643658273
s(g73
g10
tp128
F0.984375
s((I5
I-3
tp129
g5
tp130
F0.0007031711929733429
s((I10
I4
tp131
g10
tp132
F0.02603776957959765
s(g81
g5
tp133
I0
s(g90
g10
tp134
I0
s((I10
I-2
tp135
g5
tp136
F0.5028661298011948
s(g9
g13
tp137
F0.1343216222777969
s((I4
I1
tp138
g13
tp139
I0
s((I3
I0
tp140
g13
tp141
I0
s((I7
I4
tp142
g13
tp143
I0
s(g138
g10
tp144
I0
s(g67
g10
tp145
F0.962876470238973
s(g40
g10
tp146
F0.039819526622511536
s(g4
g10
tp147
F0.0004992886769430899
s((I4
I-3
tp148
g13
tp149
F1.1067235031403668
s(g148
g10
tp150
F0.0005980574743669595
s(g71
g13
tp151
I0
s(g69
g10
tp152
F0.004518949110719469
s(g20
g5
tp153
I0
s(g105
g5
tp154
F0.3455259024507826
s(g99
g10
tp155
F1.0520911207437214
s((I10
I-4
tp156
g10
tp157
F0.023630796806656088
s(g75
g10
tp158
F0.0
s(g50
g10
tp159
F0.02055684565395679
s((I2
I0
tp160
g10
tp161
I0
s((I5
I-1
tp162
g13
tp163
F0.9011708468014243
s(g84
g13
tp164
F1.2497278930537483
s((I10
I0
tp165
g13
tp166
F1.1718234260531921
s(g103
g13
tp167
F0.021217033218633843
s(g90
g13
tp168
F1.2296368495562269
s((I7
I3
tp169
g10
tp170
F0.13837466390196762
s(g114
g10
tp171
F0.01573052003092711
s((I9
I4
tp172
g10
tp173
F0.02312776828706723
s(g61
g13
tp174
I0
s(g50
g5
tp175
I0
s((I10
I-3
tp176
g13
tp177
F1.0701797461062712
s(g77
g5
tp178
I0
s((I6
I3
tp179
g13
tp180
I0
s(g61
g10
tp181
I0
s(g67
g13
tp182
F0.688717514029912
s(g179
g10
tp183
F0.015811992578783858
s(g116
g5
tp184
F0.14903179992022692
s(g120
g13
tp185
F1.1436757841761969
s(g45
g10
tp186
F0.006292483884603439
s((I3
I-1
tp187
g10
tp188
I0
s(g120
g10
tp189
F0.0012372500084981432
s(g124
g10
tp190
F1.248551566788405
s(g156
g13
tp191
F0.1529365005375496
s(g160
g13
tp192
F0.5
s((I10
I3
tp193
g10
tp194
F0.2234671923246499
s(g53
g10
tp195
I0
s((I5
I3
tp196
g10
tp197
F0.020740240379313303
s(g107
g10
tp198
F0.6017723333480557
s((I8
I-1
tp199
g10
tp200
F1.2010860503289282
s((I10
I1
tp201
g13
tp202
F1.240171586071054
s(g169
g13
tp203
F0.02467811661869588
s((I6
I0
tp204
g5
tp205
I0
s(g17
g13
tp206
F1.244784028801695
s(g131
g5
tp207
F0.18443745093973796
s(g201
g5
tp208
F1.2485315463113686
s(g4
g13
tp209
I0
s(g169
g5
tp210
F1.1285841380652122
s(g79
g10
tp211
F0.032779047575130664
s(g122
g13
tp212
F0.5
s((I8
I-3
tp213
g5
tp214
F0.002585315780711567
s((I2
I2
tp215
g10
tp216
I0
s((I5
I-4
tp217
g5
tp218
F0.0
s(g63
g5
tp219
F0.8978021365800015
s((I4
I-1
tp220
g10
tp221
F0.00048331646151783466
s((I10
I2
tp222
g10
tp223
F1.2475567172318587
s(g105
g13
tp224
F1.2149440150000532
s(g94
g13
tp225
F0.5436761491854268
s(g199
g5
tp226
F1.2098352184762644
s(g53
g5
tp227
I0
s(g7
g10
tp228
F1.1635432126814917
s(g148
g5
tp229
F0.00019890675427340274
s(g55
g13
tp230
F1.2499891887475942
s(g94
g5
tp231
F1.2499815221405508
s(g187
g13
tp232
I0
s((I1
I-2
tp233
g5
tp234
I0
s(g199
g13
tp235
F1.2263388563752056
s((I2
I-1
tp236
g5
tp237
I0
s(g215
g5
tp238
I0
s(g116
g10
tp239
F0.16087436732760496
s(g9
g5
tp240
F1.198876449067747
s(g172
g13
tp241
F0.031110037420864302
s(g165
g5
tp242
F1.249995674455787
s(g138
g5
tp243
F0.9999923706054688
s(g43
g10
tp244
I0
s(g22
g13
tp245
F0.003896362965783463
s(g131
g13
tp246
F0.028272996579869005
s(g172
g5
tp247
F0.14018131444266
s(g75
g13
tp248
F1.05166015625
s(g124
g5
tp249
F1.2499968100643732
s(g26
g13
tp250
F1.2495482760003442
s(g15
g5
tp251
F1.248710727513616
s(g135
g13
tp252
F1.2499862143905742
s(g92
g10
tp253
F0.01668498895065309
s(g193
g5
tp254
F1.2003303456685508
s(g59
g13
tp255
I0
s(g129
g10
tp256
F0.001469406556343337
s(g122
g5
tp257
I0
s(g160
g5
tp258
I0
s(g111
g13
tp259
F1.2491327720694423
s(g114
g13
tp260
I0
s(g187
g5
tp261
I0
s(g162
g5
tp262
F1.1695167250917402
s(g109
g13
tp263
I0
s(g12
g5
tp264
I0
s(g65
g10
tp265
I0
s(g12
g10
tp266
I0
s((I5
I0
tp267
g10
tp268
F0.99993896484375
s(g233
g13
tp269
I0
s(g142
g5
tp270
F0.1881900418750394
s(g233
g10
tp271
I0
s(g63
g10
tp272
F0.11967533260869681
s(g99
g13
tp273
I0
s(g213
g13
tp274
F0.0
s(g28
g5
tp275
I0
s(g38
g13
tp276
F1.092158533542626
s(g26
g5
tp277
F0.593756031349031
s(g204
g13
tp278
I0
s(g101
g10
tp279
F0.006359294775131892
s(g22
g5
tp280
F0.006404340699492541
s(g196
g5
tp281
F0.9149314832121742
s((I4
I0
tp282
g10
tp283
F0.5
s(g48
g10
tp284
I0
s(g57
g10
tp285
I0
s(g34
g13
tp286
F1.0932688166598012
s(g196
g13
tp287
F0.01220751935449462
s(g69
g13
tp288
F0.0023864784126123536
s(g129
g13
tp289
F0.20535283855309633
s(g201
g10
tp290
F1.2499896058460485
s(g111
g10
tp291
F1.2259237007948967
s(g109
g5
tp292
I0
s(g59
g10
tp293
I0
s(g142
g10
tp294
I0
s(g176
g10
tp295
F0.19945031885250963
s(g71
g5
tp296
I0
s(g45
g13
tp297
F0.0
s(g162
g10
tp298
I0
s(g222
g5
tp299
F1.2499897781879392
s(g220
g5
tp300
F0.6025565887561467
s((I5
I1
tp301
g10
tp302
F0.9809346641319857
s(g118
g5
tp303
I0
s(g301
g13
tp304
I0
s(g222
g13
tp305
F1.0162956403568209
s(g213
g10
tp306
F0.19134216939170803
s(g32
g5
tp307
I0
s(g36
g10
tp308
F0.02297925231438399
s(g101
g13
tp309
I0
s(g179
g5
tp310
F0.9069169660021714
s(g217
g10
tp311
F0.004084852344862902
s(g97
g10
tp312
I0
s(g92
g5
tp313
F1.0685873087344526
s(g236
g13
tp314
I0
s(g7
g13
tp315
F1.2499967378486672
s(g97
g13
tp316
F0.0012705205013614999
s(g103
g5
tp317
F1.0711884182080618
s(g55
g10
tp318
F1.2493723417143008
s(g57
g5
tp319
I0
s(g84
g10
tp320
F1.2464358932858564
s(g282
g5
tp321
F1.0687528585126989
s(g165
g10
tp322
F1.2109228518207253
s(g48
g13
tp323
I0
s(g20
g10
tp324
I0
s(g140
g5
tp325
I0
s(g282
g13
tp326
F0.5
s(g24
g5
tp327
F1.2475711134749075
s(g65
g5
tp328
I0
s(g140
g10
tp329
I0
s(g215
g13
tp330
I0
s(g204
g10
tp331
F0.9995242009669236
s(g30
g10
tp332
F0.016129343311815675
s(g267
g13
tp333
F0.5999969482421875
s(g156
g5
tp334
F0.01943342408906989
s(g301
g5
tp335
F1.159062448795308
s(g107
g5
tp336
F0.59921875
s(g30
g5
tp337
I0
s(g267
g5
tp338
F1.0985580113873483
s(g43
g13
tp339
F0.10107140251905686
s(g118
g10
tp340
I0
s(g135
g10
tp341
F0.704086982146024
s(g193
g13
tp342
F0.03455481531921106
s(g217
g13
tp343
F0.0004672081415584961
s(g176
g5
tp344
F0.08694647845870507
s(g236
g10
tp345
I0
s(g220
g13
tp346
F0.99993896484375
stp347
Rp348
.