ccopy_reg
_reconstructor
p0
(cutil
Counter
p1
c__builtin__
dict
p2
(dp3
((I2
I-3
tp4
S'R'
p5
tp6
F0.00038536077821484034
s((I9
I-2
tp7
g5
tp8
F1.0997004091263269e-10
s((I1
I3
tp9
S'L'
p10
tp11
F0.033433112322706696
s((I2
I1
tp12
g5
tp13
F0.16888616652107658
s((I1
I4
tp14
g10
tp15
I0
s((I7
I-1
tp16
S'G'
p17
tp18
F2.4265914436836266e-07
s((I1
I-4
tp19
S'G'
p20
tp21
I0
s((I9
I0
tp22
g17
tp23
F9.658561438019311e-08
s((I8
I4
tp24
g5
tp25
F4.933608761120677e-09
s((I7
I-3
tp26
g5
tp27
F1.122267024257003e-07
s((I2
I4
tp28
g10
tp29
F1.8078341508901662e-05
s((I3
I4
tp30
g5
tp31
F4.289992406398981e-05
s((I2
I3
tp32
g10
tp33
F0.00017740359807725964
s(g14
g5
tp34
I0
s((I6
I4
tp35
g10
tp36
F1.1906698456928365e-08
s((I7
I0
tp37
g10
tp38
F8.251889797616981e-07
s(g35
g5
tp39
F5.332827578217955e-07
s((I3
I-4
tp40
g17
tp41
F3.7140350171003066e-07
s((I6
I-1
tp42
g5
tp43
F4.59831236922684e-06
s((I9
I2
tp44
g17
tp45
F6.885436045043665e-10
s((I6
I-4
tp46
g5
tp47
F2.0502300432895478e-07
s((I8
I0
tp48
g5
tp49
F2.2844939663750324e-08
s((I6
I-3
tp50
g5
tp51
F1.727616507349486e-07
s((I3
I-1
tp52
g5
tp53
F0.004348649758153596
s((I7
I-2
tp54
g17
tp55
F7.002462992711397e-06
s((I9
I-3
tp56
g10
tp57
F9.023232743044683e-10
s((I1
I0
tp58
g5
tp59
F0.2811307548376217
s((I5
I-1
tp60
g5
tp61
F0.0004475235764978705
s((I10
I4
tp62
g17
tp63
F8.65789006957857e-38
s((I3
I3
tp64
g10
tp65
F2.0592565495409353e-06
s(g42
g17
tp66
F0.00043322198047557336
s((I2
I0
tp67
g17
tp68
F1.0298256082938586
s(g24
g17
tp69
F1.9438253294204738e-10
s((I4
I-3
tp70
g10
tp71
F1.5336849341558397e-06
s(g70
g17
tp72
F3.5753695869617416e-06
s((I3
I2
tp73
g10
tp74
F0.009969430594130285
s(g48
g17
tp75
F1.2164962917955546e-07
s(g32
g17
tp76
F0.00011946691449523606
s((I10
I-4
tp77
g17
tp78
F2.2587344333046183e-38
s((I3
I0
tp79
g10
tp80
F0.038433538793426085
s((I9
I1
tp81
g10
tp82
F1.138259637253746e-09
s((I10
I0
tp83
g10
tp84
F1.6186215230857444e-34
s((I8
I3
tp85
g10
tp86
F4.757282014937389e-09
s((I7
I3
tp87
g17
tp88
F4.901985563894879e-08
s((I4
I-4
tp89
g17
tp90
F3.6441675601142074e-06
s((I6
I0
tp91
g5
tp92
F1.451669723073431e-05
s(g30
g10
tp93
F3.7616576461524614e-07
s(g30
g17
tp94
F4.762790029016945e-06
s(g56
g5
tp95
F-1.6013870437750678e-10
s(g26
g17
tp96
F8.425103894432484e-08
s((I1
I-1
tp97
g17
tp98
F1.0149101361543382
s((I4
I4
tp99
g5
tp100
F0.00022820643127546508
s((I6
I1
tp101
g17
tp102
F4.044308426994507e-06
s((I8
I-1
tp103
g17
tp104
F4.204371889154378e-09
s((I10
I1
tp105
g10
tp106
F2.3485550876356028e-34
s(g62
g5
tp107
F9.643986274496236e-38
s(g105
g5
tp108
F2.0121199949161868e-34
s(g64
g17
tp109
F0.0001684798019120526
s(g4
g10
tp110
F0.022142014589129767
s(g87
g5
tp111
F1.5918007191494172e-06
s(g58
g17
tp112
F1.0071380911860965
s((I5
I-4
tp113
g5
tp114
F1.402024886150089e-07
s((I4
I-1
tp115
g17
tp116
F0.009824880990776375
s(g42
g10
tp117
F1.6416143211284442e-05
s(g28
g5
tp118
F0.0016072502037293348
s(g70
g5
tp119
F1.744837258434815e-06
s(g50
g17
tp120
F4.471799411230459e-07
s((I5
I4
tp121
g10
tp122
F3.975815927075275e-06
s((I1
I-2
tp123
g5
tp124
F0.09244421027082966
s((I5
I3
tp125
g5
tp126
F6.635958889163407e-05
s((I2
I-2
tp127
g5
tp128
F0.002242996504716617
s((I2
I2
tp129
g5
tp130
F0.11795790555217378
s((I6
I2
tp131
g5
tp132
F3.894926254661907e-05
s((I9
I4
tp133
g10
tp134
F-6.670376176622382e-06
s(g133
g5
tp135
F7.236717933514413e-11
s(g58
g10
tp136
F0.9955600719510673
s((I5
I2
tp137
g17
tp138
F0.000270305562565903
s((I10
I3
tp139
g5
tp140
F7.523618136412718e-38
s(g89
g10
tp141
F0.0
s((I5
I-2
tp142
g5
tp143
F3.219377928495626e-05
s((I1
I1
tp144
g10
tp145
F0.22230129093423873
s((I5
I0
tp146
g17
tp147
F0.005968677299137517
s(g97
g10
tp148
F0.699456505807653
s(g123
g17
tp149
F0.001699706331670907
s(g144
g17
tp150
F1.0095543425805653
s(g91
g10
tp151
F3.482209979328446e-05
s((I10
I-2
tp152
g10
tp153
F1.553385378631163e-34
s(g142
g10
tp154
F0.000524914646053034
s((I7
I-4
tp155
g5
tp156
F1.1960206629649565e-08
s(g12
g17
tp157
F0.08962655267168963
s((I5
I-3
tp158
g10
tp159
F9.520064256180778e-05
s(g105
g17
tp160
F2.2419475784237797e-34
s((I8
I1
tp161
g17
tp162
F1.6029746728328652e-06
s((I10
I-3
tp163
g17
tp164
F4.6990455352434934e-38
s(g97
g5
tp165
F0.21094390776352626
s((I7
I4
tp166
g17
tp167
F9.247473107375556e-09
s((I8
I-2
tp168
g5
tp169
F8.264009562174028e-10
s(g142
g17
tp170
F2.2526870981722364e-05
s((I10
I2
tp171
g5
tp172
F1.0473456812490802e-34
s((I4
I-2
tp173
g5
tp174
F0.0010486069491860064
s((I8
I-3
tp175
g17
tp176
F6.523575253464233e-10
s(g50
g10
tp177
F5.772391193110249e-06
s((I9
I-1
tp178
g10
tp179
F4.770700486029014e-09
s((I3
I-2
tp180
g10
tp181
F0.011024650232664357
s(g85
g5
tp182
F2.2492754759107046e-08
s((I3
I-3
tp183
g5
tp184
F1.4072044644622567e-06
s(g81
g17
tp185
F4.2799825744709865e-09
s((I4
I0
tp186
g5
tp187
F0.0018360348350503859
s(g83
g17
tp188
F2.2354595690646308e-34
s(g12
g10
tp189
F0.077540176844692
s((I2
I-4
tp190
g5
tp191
F6.37792173076272e-05
s((I1
I2
tp192
g17
tp193
F0.02550363841383599
s(g79
g5
tp194
F0.024161252663189615
s(g103
g5
tp195
F5.548797231122893e-09
s(g54
g5
tp196
F4.3730573451185866e-08
s(g32
g5
tp197
F0.011269302684912321
s(g79
g17
tp198
F0.09390622706488667
s((I2
I2
tp199
g10
tp200
F0.0059338491239333355
s(g77
g5
tp201
F2.815185789410311e-39
s((I7
I1
tp202
g10
tp203
F8.596948918500247e-07
s((I4
I2
tp204
g17
tp205
F0.0006673322714498234
s(g146
g5
tp206
F0.00036882332503143016
s(g204
g10
tp207
F0.00013258364394288917
s(g131
g17
tp208
F2.574518234089035e-06
s((I8
I2
tp209
g17
tp210
F2.149414761906643e-08
s(g16
g5
tp211
F2.2417884742200122e-07
s(g209
g10
tp212
F2.879802613845966e-08
s((I9
I-4
tp213
g17
tp214
F-5.59189933809998e-09
s(g168
g17
tp215
F5.804855599776351e-10
s((I8
I-4
tp216
g10
tp217
F1.2588297126343296e-10
s(g99
g10
tp218
F0.0
s(g40
g10
tp219
F4.832095832279241e-08
s((I4
I3
tp220
g10
tp221
F1.642169377469929e-05
s((I5
I1
tp222
g10
tp223
F0.0001626382999472845
s(g202
g17
tp224
F1.5205617622431074e-05
s(g204
g5
tp225
F0.0026412806166651553
s(g166
g5
tp226
F2.8550421169246827e-07
s(g220
g5
tp227
F0.0024503312104760134
s(g44
g5
tp228
F3.4300895285586695e-09
s(g24
g10
tp229
F7.137675828832479e-10
s(g183
g10
tp230
F3.809231250000003e-11
s((I3
I1
tp231
g5
tp232
F0.0332886099179885
s((I9
I3
tp233
g10
tp234
F9.89660492082101e-11
s((I7
I2
tp235
g5
tp236
F1.6240114030586024e-06
s(g186
g17
tp237
F0.025940664863408548
s(g73
g17
tp238
F0.0026955381120583547
s(g37
g5
tp239
F6.966881494360801e-07
s(g115
g5
tp240
F0.0005190968537758332
s(g190
g17
tp241
I0
s((I1
I-3
tp242
g17
tp243
I0
s(g190
g10
tp244
F0.0022432595898758526
s(g81
g5
tp245
F3.945171677983623e-09
s((I10
I-1
tp246
g5
tp247
F2.4070197394927427e-34
s(g242
g10
tp248
F0.14899473487828666
s(g137
g10
tp249
F9.909981266524377e-05
s(g216
g17
tp250
F1.1469609663974615e-10
s(g85
g17
tp251
F5.150730663519575e-10
s(g144
g5
tp252
F0.9636677210885369
s(g101
g10
tp253
F3.570048401421829e-06
s(g161
g5
tp254
F6.528798983228055e-08
s(g89
g5
tp255
F0.0
s((I2
I-1
tp256
g10
tp257
F0.15330998515732058
s(g180
g17
tp258
F0.01584901195952721
s(g7
g10
tp259
F3.678970114898575e-09
s(g16
g10
tp260
F2.5758472546269458e-05
s((I9
I0
tp261
g5
tp262
F2.2700640643975686e-09
s(g37
g17
tp263
F6.523677139511671e-05
s(g19
S'L'
p264
tp265
I0
s(g158
g5
tp266
F2.0239875621736036e-06
s(g242
g5
tp267
I0
s(g19
S'R'
p268
tp269
F8.706772663465838e-05
s(g152
g5
tp270
F1.6419838244232216e-37
s(g131
g10
tp271
F7.092512245925133e-06
s((I4
I1
tp272
g10
tp273
F0.0005331294707602772
s(g166
g10
tp274
F7.451657968090826e-09
s(g256
g5
tp275
F0.03117729247199477
s(g235
g17
tp276
F2.99332053185978e-07
s(g4
g17
tp277
F0.00011742158584721098
s(g155
g17
tp278
F1.7800707331538916e-09
s((I6
I-2
tp279
g5
tp280
F7.067018254354534e-07
s(g272
g17
tp281
F0.01283260744210346
s(g173
g17
tp282
F1.5344108803581073e-06
s(g121
g17
tp283
F0.0
s(g246
g10
tp284
F1.7165576989108671e-34
s(g127
g17
tp285
F0.0030799765877488946
s(g192
g10
tp286
F0.00011034270539573601
s(g279
g10
tp287
F1.5807998042811894e-05
s(g133
g17
tp288
F-1.385927744944976e-07
s(g121
g5
tp289
F1.4740155569097016e-05
s(g163
g10
tp290
F8.109296085798605e-38
s((I6
I3
tp291
g10
tp292
F4.425292656608472e-07
s(g235
g10
tp293
F3.88034068001174e-07
s(g291
g17
tp294
F1.4570981649654754e-06
s(g60
g10
tp295
F0.0018361741880207807
s(g178
g17
tp296
F1.4306771569280626e-09
s(g64
g5
tp297
F0.00012199477075038071
s(g60
g17
tp298
F0.0017964076576305762
s(g7
g17
tp299
F-7.717612409749241e-08
s(g77
g10
tp300
F3.0671879992567397e-38
s(g67
g10
tp301
F0.0875256685316558
s(g139
g17
tp302
F6.856242091146299e-38
s(g28
g17
tp303
F3.036204878591311e-06
s(g123
g10
tp304
F0.6819310163734829
s(g125
g17
tp305
F1.3467915451957897e-05
s(g87
g10
tp306
F4.0145799814526595e-08
s(g83
g5
tp307
F2.2405420991710233e-34
s(g54
g10
tp308
F3.150824917440137e-08
s(g35
g17
tp309
F1.559615900850967e-08
s(g9
g5
tp310
F8.528581914140626e-06
s(g175
g5
tp311
F4.748820748372123e-10
s(g129
g17
tp312
F0.0035665846420552265
s(g233
g5
tp313
F4.357841285716671e-10
s(g171
g17
tp314
F8.094421282278628e-38
s(g44
g10
tp315
F2.97606097754562e-10
s(g52
g10
tp316
F0.07663989983587852
s(g168
g10
tp317
F1.72337415594611e-08
s(g56
g17
tp318
F5.60004114936664e-11
s(g192
g5
tp319
F1.0621755291364985
s(g213
g10
tp320
F-0.0003335242610086543
s(g91
g17
tp321
F0.00029417721240799057
s(g115
g10
tp322
F0.004540950276463828
s(g178
g5
tp323
F1.8125355805169897e-09
s(g103
g10
tp324
F1.5731132516719585e-07
s(g99
g17
tp325
F1.9892309992364796e-06
s(g231
g10
tp326
F0.005054775553555662
s(g158
g17
tp327
F9.378611338735837e-06
s(g67
g5
tp328
F0.04067207585181193
s(g161
g10
tp329
F5.729479849912289e-08
s((I3
I-2
tp330
g5
tp331
F0.001396148984249943
s(g279
g17
tp332
F3.921859104656251e-06
s(g52
g17
tp333
F0.01938390515839363
s(g9
g17
tp334
F2.1300727852697038e-05
s(g183
g17
tp335
F0.0
s(g233
g17
tp336
F8.629017468904306e-11
s(g48
g10
tp337
F5.00827610740447e-07
s(g175
g10
tp338
F1.2427131753252947e-09
s(g216
g5
tp339
F9.713379937277964e-10
s(g222
g5
tp340
F0.0019748967946520055
s(g213
g5
tp341
F4.4078916572395425e-11
s(g101
g5
tp342
F8.598745681371946e-05
s((I10
I4
tp343
g10
tp344
F1.3237532785558337e-36
s(g209
g5
tp345
F8.056871858684065e-07
s(g22
g10
tp346
F3.42012978685091e-09
s(g125
g10
tp347
F8.541763492245547e-06
s(g155
g10
tp348
F0.0
s(g231
g17
tp349
F0.03454873993319328
s(g73
g5
tp350
F0.01418446248927308
s(g222
g17
tp351
F0.0005237237482593373
s(g26
g10
tp352
F3.4555629170418176e-07
s(g202
g5
tp353
F6.512540304527445e-07
s(g171
g10
tp354
F6.738412819221453e-38
s(g40
g5
tp355
F2.1818394558905825e-05
s(g220
g17
tp356
F1.6595399644854854e-05
s(g291
g5
tp357
F6.96259804899985e-06
s(g113
g17
tp358
F3.7305136437345503e-08
s(g46
g17
tp359
F1.25209684007458e-08
s(g137
g5
tp360
F9.365514835466605e-05
s(g127
g10
tp361
F0.13432684869226724
s(g46
g10
tp362
F9.862974783830827e-07
s(g152
g17
tp363
F-4.1714430442369605e-22
s(g14
g17
tp364
F0.0003834598215870002
s(g186
g10
tp365
F0.0024900930167865458
s(g146
g10
tp366
F0.00043222133301418084
s(g256
g17
tp367
F0.1001901686451967
s(g246
g17
tp368
F2.067091868062195e-34
s(g139
g10
tp369
F7.15196894325834e-38
s(g113
g10
tp370
F1.77906881465871e-05
s(g163
g5
tp371
F4.791039916980157e-38
s(g272
g5
tp372
F0.003154152365507346
s(g173
g10
tp373
F0.01718337716774068
stp374
Rp375
.