ccopy_reg
_reconstructor
p0
(cutil
Counter
p1
c__builtin__
dict
p2
(dp3
((I2
I-3
tp4
S'R'
p5
tp6
F1.6314350651669735e-05
s((I9
I-1
tp7
g5
tp8
F1.385104838706096e-10
s((I1
I3
tp9
S'L'
p10
tp11
F0.00037188256791527213
s((I2
I1
tp12
g5
tp13
F0.10808321472927637
s((I1
I4
tp14
S'L'
p15
tp16
F0.0005595549542688868
s((I7
I-1
tp17
S'G'
p18
tp19
F8.000535716232611e-08
s((I1
I-4
tp20
g18
tp21
F1.3508845107789401e-05
s((I9
I0
tp22
g18
tp23
F1.825861664150485e-10
s((I8
I4
tp24
g5
tp25
F1.3515147002373818e-11
s((I7
I-3
tp26
g5
tp27
F2.1864700119787444e-08
s((I2
I4
tp28
g10
tp29
F3.264868786713908e-05
s((I3
I4
tp30
g5
tp31
F0.0005672617653593887
s((I1
I1
tp32
g18
tp33
F1.0003145838603182
s(g14
S'R'
p34
tp35
I0
s((I6
I4
tp36
g10
tp37
F1.2173118245452637e-07
s((I7
I0
tp38
g10
tp39
F1.1979967593348666e-06
s(g36
g5
tp40
F5.545940942742097e-07
s((I3
I-4
tp41
g18
tp42
F0.0
s((I6
I-1
tp43
g5
tp44
F1.4416407496678162e-05
s((I9
I2
tp45
g18
tp46
F1.852744651144419e-10
s((I6
I-4
tp47
g5
tp48
F0.0
s((I8
I0
tp49
g5
tp50
F4.10674912047104e-10
s((I6
I-3
tp51
g5
tp52
F5.910066713370572e-07
s((I3
I3
tp53
g18
tp54
F0.00034842667038273455
s((I7
I-2
tp55
g18
tp56
F6.038426905475394e-06
s((I9
I-3
tp57
g10
tp58
F1.281946081129211e-12
s((I1
I0
tp59
g5
tp60
F0.7263087608538177
s((I5
I-1
tp61
g5
tp62
F8.751073360103497e-05
s((I10
I4
tp63
g18
tp64
F8.889663404073423e-46
s(g43
g18
tp65
F8.80602058173816e-05
s((I3
I0
tp66
g10
tp67
F0.017458138801666113
s(g24
g18
tp68
F3.957268816885854e-12
s((I4
I-3
tp69
g10
tp70
F0.0007602115321536431
s(g69
g18
tp71
F0.0
s((I3
I2
tp72
g10
tp73
F0.01109900906931751
s(g49
g18
tp74
F2.543982850740341e-08
s(g32
g10
tp75
F0.37202970093927246
s((I10
I-4
tp76
g18
tp77
F1.930376261856539e-44
s((I2
I0
tp78
g18
tp79
F0.6160194398400355
s((I9
I1
tp80
g10
tp81
F1.8333262348093873e-10
s((I10
I0
tp82
g10
tp83
F1.1420927678812136e-45
s((I8
I3
tp84
g10
tp85
F8.877034939933204e-12
s((I7
I3
tp86
g18
tp87
F4.558934290538776e-09
s((I4
I-4
tp88
g18
tp89
F4.0920457148148506e-08
s((I6
I0
tp90
g5
tp91
F3.981240441995975e-05
s(g30
g10
tp92
F1.1053430427302887e-05
s(g30
g18
tp93
F2.529505517686024e-05
s(g57
g5
tp94
F9.929196188062763e-13
s(g26
g18
tp95
F2.167585540295656e-08
s((I1
I-2
tp96
g18
tp97
F9.142401173910249e-06
s(g49
g10
tp98
F1.0935751435202213e-07
s((I4
I4
tp99
g5
tp100
F6.893266821881257e-05
s((I4
I2
tp101
g5
tp102
F0.0022851623409707593
s((I8
I-1
tp103
g18
tp104
F3.152060510752807e-10
s((I10
I1
tp105
g10
tp106
F8.91913377391718e-46
s(g63
g5
tp107
F8.290369362374288e-46
s(g105
g5
tp108
F7.165333190287144e-46
s(g4
g10
tp109
F0.0
s(g86
g5
tp110
F2.1519385454890066e-07
s(g59
g18
tp111
F1.0001512704481952
s((I5
I-4
tp112
g5
tp113
F0.0
s((I4
I-1
tp114
g18
tp115
F0.006657723291130498
s((I6
I-2
tp116
g10
tp117
F5.834110582026359e-05
s(g28
g5
tp118
F0.0036056285616299045
s(g69
g5
tp119
F0.0
s((I10
I-1
tp120
g10
tp121
F1.824720624156671e-45
s(g45
g5
tp122
F1.522567309250562e-10
s((I7
I2
tp123
g10
tp124
F3.060622429573374e-08
s((I5
I3
tp125
g5
tp126
F0.0
s((I2
I-2
tp127
g5
tp128
F3.2287916118452343e-06
s((I2
I2
tp129
g5
tp130
F0.12918681103568044
s((I6
I2
tp131
g5
tp132
F1.2392564127594702e-05
s((I9
I4
tp133
g10
tp134
F3.0909704708241947e-12
s(g133
g5
tp135
F4.4679646429984635e-12
s(g59
g10
tp136
F0.9306047214992886
s((I5
I2
tp137
g18
tp138
F7.26170108668263e-05
s((I10
I3
tp139
g5
tp140
F6.820568322026982e-46
s(g88
g10
tp141
F0.0
s((I5
I-2
tp142
g5
tp143
F5.116584119762206e-05
s((I2
I3
tp144
g18
tp145
F0.00020677669946857381
s((I5
I0
tp146
g18
tp147
F0.0036970779377333528
s((I1
I-1
tp148
g10
tp149
F1.200179342043712
s(g148
g18
tp150
F1.0000056086073437
s(g144
g10
tp151
F0.0001713589197809004
s(g90
g10
tp152
F1.047136722238359e-05
s((I10
I-2
tp153
g10
tp154
F7.139015043397984e-47
s(g61
g10
tp155
F0.0015233152986479067
s((I4
I0
tp156
g18
tp157
F0.019998915841508563
s(g12
g18
tp158
F0.9904453924480545
s((I5
I-3
tp159
g10
tp160
F6.807045029176361e-05
s(g105
g18
tp161
F7.098242892190411e-46
s((I8
I1
tp162
g18
tp163
F4.804712923133907e-07
s((I10
I-3
tp164
g18
tp165
F1.4555061036260108e-46
s(g148
g5
tp166
F0.7348636629907606
s((I7
I4
tp167
g18
tp168
F1.4353879316383363e-11
s((I8
I-2
tp169
g5
tp170
F1.003005125354924e-10
s(g142
g18
tp171
F0.0001323205084093251
s((I10
I2
tp172
g5
tp173
F4.4494980311531286e-46
s(g114
g5
tp174
F0.0007018558449850597
s((I8
I-3
tp175
g18
tp176
F7.764044716554382e-11
s(g51
g10
tp177
F3.1168141133799707e-06
s((I9
I-2
tp178
g10
tp179
F4.0235454925018816e-12
s((I3
I-1
tp180
g10
tp181
F0.026954234402151625
s(g84
g5
tp182
F9.188280500170375e-09
s((I3
I-3
tp183
g5
tp184
F0.0
s(g80
g18
tp185
F2.3257786319002805e-10
s(g156
g5
tp186
F0.00324635058969002
s(g82
g18
tp187
F1.6237051029185374e-45
s(g12
g10
tp188
F0.05437650006387465
s((I2
I-4
tp189
g5
tp190
F0.00018610331834896255
s((I1
I2
tp191
g18
tp192
F0.01599267982451232
s(g66
g5
tp193
F0.028147981236399812
s(g103
g5
tp194
F2.2803751639196735e-10
s(g55
g5
tp195
F6.42478045628107e-08
s(g144
g5
tp196
F0.016541386885836607
s(g66
g18
tp197
F0.1722161433535322
s(g129
g10
tp198
F0.0037537905374447718
s(g76
g5
tp199
F1.3040718964583845e-47
s((I5
I1
tp200
g5
tp201
F0.000623820451222958
s((I6
I1
tp202
g5
tp203
F5.603981710316812e-05
s(g146
g5
tp204
F0.0002979117659435406
s(g101
g10
tp205
F0.00031630226605441013
s(g131
g18
tp206
F3.7144710111033676e-07
s((I8
I2
tp207
g18
tp208
F1.351910454335488e-08
s(g17
g5
tp209
F3.12265932904682e-07
s(g207
g10
tp210
F9.172511718951932e-09
s((I9
I-4
tp211
g18
tp212
F3.687467819639364e-12
s(g169
g18
tp213
F5.622390516719176e-11
s((I8
I-4
tp214
g10
tp215
F6.488947891401495e-10
s(g99
g10
tp216
F7.498024036107144e-08
s(g41
g10
tp217
F0.0
s((I4
I3
tp218
g10
tp219
F3.5287445467077563e-07
s((I7
I1
tp220
g5
tp221
F3.119704905854974e-07
s(g220
g18
tp222
F1.1366612393608877e-05
s(g202
g18
tp223
F6.993570478430126e-06
s(g167
g5
tp224
F9.222987199918807e-10
s(g218
g5
tp225
F0.0004918963445517547
s((I5
I4
tp226
g10
tp227
F0.0
s(g24
g10
tp228
F8.577531457607575e-12
s(g183
g10
tp229
F0.0
s((I3
I1
tp230
g5
tp231
F0.03158902364234041
s((I9
I3
tp232
g10
tp233
F7.569112599443093e-11
s(g123
g5
tp234
F1.3532789252521718e-06
s((I7
I-4
tp235
g5
tp236
F5.568098321149061e-10
s(g72
g18
tp237
F0.005428868091242484
s(g38
g5
tp238
F6.514152686668719e-08
s((I4
I-2
tp239
g5
tp240
F0.0003185590111813896
s(g189
g18
tp241
F1.516974472833669e-05
s((I1
I-3
tp242
g18
tp243
F2.190681888371419e-05
s(g189
g10
tp244
F0.0
s(g80
g5
tp245
F1.4439457778540823e-10
s(g242
g10
tp246
I0
s(g137
g10
tp247
F6.230150578521823e-05
s(g214
g18
tp248
F3.205822866340771e-11
s(g84
g18
tp249
F9.267467787262712e-12
s(g116
g18
tp250
F4.537987401637921e-06
s(g32
g5
tp251
F1.200833945679979
s(g202
g10
tp252
F3.2394733103324986e-06
s(g162
g5
tp253
F1.2959901867148438e-08
s(g88
g5
tp254
F0.0
s(g127
g10
tp255
F0.18355710716901472
s((I3
I-2
tp256
g18
tp257
F3.1557702907106506e-05
s(g7
g10
tp258
F3.119149676974711e-08
s(g17
g10
tp259
F5.6740322568229016e-08
s(g22
g5
tp260
F3.319746310307669e-09
s(g38
g18
tp261
F3.040317045368341e-07
s(g20
g10
tp262
F0.0
s(g159
g5
tp263
F0.0
s(g242
g5
tp264
F0.0
s(g20
g5
tp265
I0
s(g120
g5
tp266
F1.1510445176728854e-45
s(g131
g10
tp267
F4.7633369949435183e-07
s((I4
I1
tp268
g10
tp269
F0.0011436620959895465
s(g167
g10
tp270
F5.589925902097877e-10
s((I2
I-1
tp271
g5
tp272
F0.043481882144873085
s(g123
g18
tp273
F1.5932777833160188e-07
s(g4
g18
tp274
F1.3562251559090382e-05
s(g51
g18
tp275
F5.651525738976994e-07
s((I3
I-2
tp276
g5
tp277
F0.0008600485638958728
s(g235
g18
tp278
F2.316178749197626e-14
s(g116
g5
tp279
F1.1199574191249408e-06
s(g268
g18
tp280
F0.017655840619044127
s(g239
g18
tp281
F0.0005304121968469772
s(g226
g18
tp282
F3.454490590260753e-07
s(g271
g18
tp283
F0.10015004005879505
s(g191
g10
tp284
F0.0009656580042878469
s(g43
g10
tp285
F6.139868095323451e-05
s(g133
g18
tp286
F2.8602654474808967e-12
s(g45
g10
tp287
F1.778431280916385e-10
s(g164
g10
tp288
F3.681189823897206e-46
s((I6
I3
tp289
g10
tp290
F1.8844286831744252e-07
s(g96
g5
tp291
F4.389944181285687e-06
s(g289
g18
tp292
F2.361999385505664e-07
s(g142
g10
tp293
F0.0003528113912858887
s(g7
g18
tp294
F1.301661560166375e-10
s(g53
g5
tp295
F0.007285881115818536
s(g61
g18
tp296
F0.00043273793758716685
s(g178
g18
tp297
F3.344622542753222e-12
s(g76
g10
tp298
F1.1246716414859988e-44
s(g78
g10
tp299
F0.14632077847317665
s(g139
g18
tp300
F8.776452040746967e-48
s(g28
g18
tp301
F0.0001412573087949806
s(g96
g10
tp302
F1.1974001587256753
s(g125
g18
tp303
F1.0206475803934819e-07
s(g86
g10
tp304
F4.596169644643882e-09
s(g82
g5
tp305
F1.0585626436712177e-45
s(g55
g10
tp306
F1.7266010204308027e-05
s(g36
g18
tp307
F2.752994619102435e-07
s(g9
g5
tp308
F0.0
s(g175
g5
tp309
F6.157461032936693e-11
s(g129
g18
tp310
F0.00795964752992575
s(g232
g5
tp311
F2.1739362873995122e-10
s(g172
g18
tp312
F3.259124578297291e-50
s(g226
g5
tp313
F0.0
s(g256
g10
tp314
F0.047806147468656794
s(g169
g10
tp315
F4.410175435894488e-08
s(g57
g18
tp316
F9.83860005732555e-13
s(g191
g5
tp317
F1.2310747583351633
s(g211
g10
tp318
F2.3991248963265446e-12
s(g90
g18
tp319
F0.0003123930862475039
s(g239
g10
tp320
F0.0026786027692034856
s(g178
g5
tp321
F3.7050182127757295e-12
s(g103
g10
tp322
F1.1001926073295716e-07
s(g99
g18
tp323
F0.0
s(g230
g10
tp324
F0.01806606388237922
s(g159
g18
tp325
F0.0
s(g78
g5
tp326
F0.09652653932645532
s(g162
g10
tp327
F9.910166406715662e-09
s(g180
g5
tp328
F0.0125494601006894
s(g53
g10
tp329
F0.00031692478410662035
s(g180
g18
tp330
F0.042838410034514475
s(g9
g18
tp331
F0.0001748054159852687
s(g183
g18
tp332
F3.3676736872092174e-05
s(g232
g18
tp333
F2.585102173126995e-10
s(g153
g5
tp334
F5.224903228917917e-47
s(g175
g10
tp335
F6.263127608249152e-09
s(g214
g5
tp336
F2.4798040041438072e-11
s(g220
g10
tp337
F6.097651046716579e-08
s(g211
g5
tp338
F5.4690872945177116e-12
s(g101
g18
tp339
F0.009563349645546029
s(g63
g10
tp340
F4.9702347475344074e-43
s(g207
g5
tp341
F5.10491378339408e-08
s(g22
g10
tp342
F1.7399828518042014e-10
s(g125
g10
tp343
F0.0
s(g235
g10
tp344
F6.4338298588822944e-15
s(g230
g18
tp345
F0.045423860146380564
s(g72
g5
tp346
F0.06579872398618156
s(g200
g18
tp347
F0.002985742859728506
s(g26
g10
tp348
F4.060264703881199e-06
s(g200
g10
tp349
F0.00032048614952858324
s(g172
g10
tp350
F3.329987041828378e-50
s(g41
g5
tp351
F2.8179280659842808e-05
s(g218
g18
tp352
F1.079724911268521e-05
s(g289
g5
tp353
F1.819929210788758e-06
s(g112
g18
tp354
F3.9380826223881236e-07
s(g47
g18
tp355
F1.9563817341178754e-09
s(g137
g5
tp356
F0.0016928292190434193
s(g271
g10
tp357
F0.1834808317600875
s(g47
g10
tp358
F6.614628433391515e-07
s(g153
g18
tp359
F5.045054654975639e-47
s(g14
S'G'
p360
tp361
I0
s(g156
g10
tp362
F0.0009977804526757389
s(g146
g10
tp363
F0.001162622604394172
s(g127
g18
tp364
F0.0
s(g120
g18
tp365
F1.3682485090583346e-45
s(g139
g10
tp366
F6.542762635137581e-46
s(g112
g10
tp367
F0.0
s(g164
g5
tp368
F1.4885447512913927e-44
s(g268
g5
tp369
F0.00494116150496432
s(g114
g10
tp370
F0.011300223292929238
stp371
Rp372
.