ccopy_reg
_reconstructor
p0
(cutil
Counter
p1
c__builtin__
dict
p2
(dp3
((I2
I-3
tp4
S'R'
p5
tp6
F1.864575704895118e-14
s((I9
I-1
tp7
S'R'
p8
tp9
F8.10025579373414e-19
s((I6
I2
tp10
S'G'
p11
tp12
F2.9946238823595105e-25
s((I1
I3
tp13
S'L'
p14
tp15
F-0.5
s((I2
I1
tp16
g5
tp17
F-0.017463432779626246
s((I7
I-1
tp18
g8
tp19
F3.66707684801681e-25
s((I8
I2
tp20
S'L'
p21
tp22
F2.9255766936024263e-26
s((I1
I4
tp23
g14
tp24
F-0.12499991238602057
s((I9
I-4
tp25
S'G'
p26
tp27
F-9.236824507779176e-12
s((I7
I-2
tp28
g26
tp29
F1.9527257293981389e-25
s((I1
I-4
tp30
g11
tp31
F2.624806291071414e-09
s((I8
I-1
tp32
g26
tp33
F4.784302949604026e-27
s((I8
I-4
tp34
g21
tp35
F-5.317599492550592e-19
s((I4
I4
tp36
g14
tp37
F2.3447154296482877e-24
s((I3
I-4
tp38
g14
tp39
F3.3272979374471224e-19
s((I9
I0
tp40
g26
tp41
F1.022891680423967e-19
s((I4
I3
tp42
g14
tp43
F6.021110558958476e-25
s((I5
I1
tp44
g14
tp45
F3.103456827316593e-23
s((I8
I4
tp46
g8
tp47
F5.886272110872201e-23
s((I7
I1
tp48
g26
tp49
F6.346483186728946e-25
s((I4
I2
tp50
g5
tp51
F-1.123528860890431e-12
s((I7
I-3
tp52
g8
tp53
F1.5861864256932124e-25
s(g42
g5
tp54
F7.616162431243351e-25
s(g20
g26
tp55
F1.2116513252947878e-25
s((I5
I4
tp56
g14
tp57
F1.4507748884481626e-25
s(g46
g21
tp58
F1.0654085229059046e-25
s((I2
I4
tp59
g14
tp60
F3.722115627959406e-10
s((I3
I-3
tp61
g14
tp62
F3.012263975540927e-21
s((I3
I1
tp63
g5
tp64
F-6.70405509758065e-06
s((I3
I4
tp65
g5
tp66
F2.2562332862121836e-15
s((I9
I3
tp67
g21
tp68
F4.491420673032302e-22
s((I2
I3
tp69
g14
tp70
F1.0674427523617247e-13
s((I7
I2
tp71
g8
tp72
F7.218790356634179e-26
s((I4
I0
tp73
g11
tp74
F-3.04743600331675e-08
s((I3
I2
tp75
g11
tp76
F1.4106972442773968e-16
s((I7
I0
tp77
g8
tp78
F1.267029116636907e-24
s((I4
I-2
tp79
g5
tp80
F8.652416087282649e-25
s((I2
I-4
tp81
g11
tp82
F3.7703997816504275e-13
s((I6
I4
tp83
g14
tp84
F6.188779919106841e-26
s((I1
I-3
tp85
g11
tp86
F1.254364967444193e-11
s(g81
g14
tp87
F5.2949757185002174e-14
s((I9
I1
tp88
g8
tp89
F1.975831529397777e-20
s(g77
g21
tp90
F1.3445670734034726e-24
s(g85
g14
tp91
F-0.4999999999987064
s(g83
g5
tp92
F2.644669707084515e-26
s(g38
g11
tp93
F2.888108846293068e-19
s((I6
I-1
tp94
g5
tp95
F1.594440542151397e-24
s((I5
I2
tp96
g14
tp97
F4.439868422775527e-25
s((I9
I2
tp98
g26
tp99
F1.1406638665859338e-21
s(g34
g26
tp100
F1.0770485506097365e-23
s((I6
I-4
tp101
g5
tp102
F4.084395418408568e-26
s((I8
I0
tp103
g8
tp104
F9.761655950064557e-27
s((I6
I-3
tp105
g5
tp106
F7.630737184205974e-26
s((I8
I3
tp107
g26
tp108
F6.465116425632857e-26
s((I6
I-2
tp109
g11
tp110
F-1.791921912939748e-14
s((I1
I1
tp111
g5
tp112
F-0.9682696079451621
s((I6
I1
tp113
g14
tp114
F2.9741929811583975e-24
s((I3
I-1
tp115
g5
tp116
F6.029926749981141e-19
s((I8
I1
tp117
g8
tp118
F4.4607381677044117e-26
s(g18
g26
tp119
F8.741704844928238e-25
s((I4
I-4
tp120
g5
tp121
F2.7780706423273596e-25
s((I9
I-3
tp122
g21
tp123
F-5.686633017764089e-14
s((I2
I-2
tp124
g14
tp125
F-5.539382840660369e-11
s((I1
I0
tp126
g5
tp127
F-1.0127357498800618
s((I5
I-1
tp128
g5
tp129
F6.966045876645285e-23
s((I3
I-2
tp130
g11
tp131
F3.8993149220321884e-22
s((I9
I-2
tp132
g21
tp133
F6.111697025298514e-19
s(g28
g21
tp134
F4.534848724907647e-25
s(g40
g8
tp135
F1.1951167301252091e-19
s(g77
g26
tp136
F1.5848939587743079e-24
s(g30
g14
tp137
F-0.4999999987046448
s((I5
I-3
tp138
g5
tp139
F3.670602385216928e-26
s((I10
I4
tp140
g26
tp141
I0
s(g85
g5
tp142
F-0.2499999996497764
s(g30
g5
tp143
F-0.37499995806573844
s(g94
g11
tp144
F1.718549076036846e-24
s(g10
g14
tp145
F3.4511817913561776e-25
s((I4
I1
tp146
g14
tp147
F9.660503762324215e-25
s((I3
I0
tp148
g14
tp149
F-7.141552434258624e-08
s((I7
I4
tp150
g21
tp151
F1.4247736770972793e-25
s((I2
I-1
tp152
g5
tp153
F1.6699400237614258e-05
s(g71
g26
tp154
F4.2926420157308916e-26
s(g46
g26
tp155
F-1.791683266784219e-18
s(g4
g11
tp156
F1.4040321166028978e-14
s((I4
I-3
tp157
g14
tp158
F2.8559398145826988e-24
s(g157
g11
tp159
F2.1164622340362214e-24
s(g75
g14
tp160
F2.598190675987156e-16
s((I7
I-4
tp161
g26
tp162
F5.146063449745257e-26
s(g23
g5
tp163
F-1.6149626501669555e-78
s(g109
g5
tp164
F2.6355815062100595e-24
s(g103
g26
tp165
F1.4877040674301482e-26
s(g111
g14
tp166
F-0.20342874277201012
s((I10
I-4
tp167
g26
tp168
F-1.0270275263748602e-14
s((I4
I-1
tp169
g11
tp170
F-1.0354581615666236e-09
s(g56
g11
tp171
F2.3664745188650046e-25
s((I2
I0
tp172
g11
tp173
F-0.652371357209705
s(g128
g14
tp174
F1.1276888950125976e-22
s(g152
g11
tp175
F-0.5002572659295071
s((I1
I2
tp176
g14
tp177
F3.021719904252283e-11
s(g88
g21
tp178
F1.360613711662192e-20
s((I1
I-1
tp179
g14
tp180
F-1.007867856583822
s(g107
g21
tp181
F4.05653312544e-25
s(g94
g14
tp182
F1.8044819704465567e-24
s((I7
I3
tp183
g26
tp184
F1.972159262319326e-25
s(g120
g11
tp185
F1.7534621705546924e-25
s((I6
I0
tp186
g5
tp187
F2.086455255081539e-24
s(g65
g14
tp188
F2.4185845127585246e-15
s(g98
g21
tp189
F1.1510035079133972e-21
s((I10
I-3
tp190
g21
tp191
I0
s(g81
g5
tp192
F7.800797083651049e-14
s((I6
I3
tp193
g14
tp194
F7.195027753339591e-26
s(g65
g11
tp195
F1.45943771632539e-15
s(g71
g21
tp196
F8.631941323504437e-26
s(g193
g11
tp197
F2.584666439136459e-24
s(g122
g8
tp198
F-1.9500597238074373e-14
s((I5
I-2
tp199
g14
tp200
F-7.614730879558521e-12
s(g52
g26
tp201
F1.440330509388302e-25
s(g115
g11
tp202
F-0.004996363602906332
s(g199
g11
tp203
F1.0906588857995956e-22
s(g132
g26
tp204
F-5.976165836131907e-13
s(g167
g21
tp205
F-9.035424406182751e-19
s(g172
g14
tp206
F-0.0719826841614185
s(g190
g26
tp207
F-2.5547826771660184e-18
s(g36
g5
tp208
F2.2364021920283472e-24
s(g59
g11
tp209
F4.2906916054989086e-14
s((I5
I3
tp210
g11
tp211
F9.566802362071214e-26
s(g113
g11
tp212
F2.1555180386894263e-24
s((I8
I-2
tp213
g26
tp214
F1.7327107135970974e-27
s(g183
g21
tp215
F3.96495363290696e-24
s((I9
I4
tp216
g26
tp217
F-1.8259270816485525e-14
s(g18
g21
tp218
F5.1174374719051835e-25
s(g140
g8
tp219
F-3.4523050968252943e-16
s((I3
I3
tp220
g11
tp221
F1.1647563161288402e-16
s(g4
g14
tp222
F1.0399229935956132e-14
s(g183
g8
tp223
F9.83285511280398e-26
s(g83
g11
tp224
F1.1773278222679338e-25
s(g13
g5
tp225
F-0.25499999995855727
s((I8
I-3
tp226
g8
tp227
F-1.417280725253522e-19
s(g179
g11
tp228
F-0.879999999801032
s((I2
I2
tp229
g11
tp230
F2.867499453087671e-12
s(g126
g11
tp231
F-0.9787499998528725
s((I5
I-4
tp232
g5
tp233
F8.454999881626024e-26
s(g67
g8
tp234
F3.7208337644353295e-22
s(g79
g11
tp235
F2.0736152405546636e-24
s(g109
g14
tp236
F3.0547155220621e-24
s(g56
g5
tp237
F1.858327726702333e-25
s(g59
g5
tp238
F1.615971120944716e-12
s(g157
g5
tp239
F6.682791600782767e-26
s(g98
g8
tp240
F6.8024228457905375e-22
s(g130
g14
tp241
F-7.020568610268513e-11
s((I1
I-2
tp242
g5
tp243
F-0.37499999912131615
s(g213
g21
tp244
F3.116291649459253e-27
s(g113
g5
tp245
F2.5381218163339442e-24
s(g229
g5
tp246
F-0.018308300271085657
s(g146
g11
tp247
F-4.3653148124234367e-11
s(g122
g26
tp248
F-1.7448288122572103e-22
s(g10
g5
tp249
F1.481162525867547e-24
s(g216
g21
tp250
F1.2017012056810089e-22
s(g146
g5
tp251
F-2.8571573567028524e-08
s(g176
g5
tp252
F-0.7499928006486813
s(g25
g21
tp253
F-3.418864522476018e-14
s(g140
g21
tp254
F-2.0540550527497203e-16
s(g186
g11
tp255
F2.992532184767679e-24
s(g79
g14
tp256
F-1.0111482355012374e-14
s(g132
g8
tp257
F-1.676361924452854e-16
s(g32
g21
tp258
F4.0944649526384326e-27
s(g126
g14
tp259
F-0.3216708205580625
s(g20
g8
tp260
F1.216119267404939e-25
s(g96
g11
tp261
F3.650225981371082e-25
s((I10
I3
tp262
g8
tp263
I0
s(g63
g14
tp264
F-1.4444025907398916e-12
s(g138
g11
tp265
F3.097092668264456e-26
s(g172
g5
tp266
F-0.00029761161603942144
s(g117
g21
tp267
F2.6686355910304844e-25
s(g120
g14
tp268
F2.4602481963563235e-25
s(g130
g5
tp269
F2.0364398775094908e-21
s(g199
g5
tp270
F3.227625700864155e-25
s((I3
I3
tp271
g14
tp272
F1.1691186660502174e-15
s(g69
g11
tp273
F3.1326735102632666e-11
s(g13
g11
tp274
F2.394532132409483e-11
s((I5
I0
tp275
g11
tp276
F6.465986440248961e-23
s(g242
g14
tp277
F-0.7499999999941394
s(g150
g8
tp278
F1.1217863547865168e-25
s(g242
g11
tp279
F4.638722274946133e-05
s(g67
g26
tp280
F3.50802447679628e-22
s(g103
g21
tp281
F5.551955342693324e-26
s(g226
g21
tp282
F1.323413015602016e-25
s(g34
g8
tp283
F-1.4146833456415032e-21
s(g48
g21
tp284
F4.567856851082184e-25
s(g32
g8
tp285
F3.2105782348587453e-27
s(g186
g14
tp286
F2.1029452699660003e-24
s(g105
g11
tp287
F-4.449350527258664e-16
s(g25
g8
tp288
F8.092520788657265e-23
s(g210
g5
tp289
F9.586630363864503e-26
s(g161
g8
tp290
F8.354839054561865e-26
s(g16
g11
tp291
F-0.07229778011639462
s(g61
g11
tp292
F1.3297490378962157e-21
s(g40
g21
tp293
F2.5013444194719885e-20
s(g210
g14
tp294
F1.6585014554805513e-25
s(g161
g21
tp295
F6.740312049107161e-26
s(g138
g14
tp296
F3.2729284425368625e-26
s(g117
g26
tp297
F4.00337322815903e-26
s(g220
g5
tp298
F1.452334918218865e-16
s(g63
g11
tp299
F-2.0534297543699593e-06
s(g179
g5
tp300
F-0.6058795794376366
s(g61
g5
tp301
F1.3480059449904998e-20
s(g213
g8
tp302
F1.746722206106864e-27
s(g75
g5
tp303
F-3.301671979655102e-08
s(g52
g21
tp304
F1.7481767591492065e-25
s(g128
g11
tp305
F-2.1474833043802937e-10
s(g111
g11
tp306
F-0.9218749988860445
s(g169
g5
tp307
F1.1979471311384817e-22
s(g44
g11
tp308
F-5.817166466284267e-16
s(g124
g5
tp309
F1.9555257878690733e-14
s(g48
g8
tp310
F7.530975655121798e-25
s(g226
g26
tp311
F-2.2652949711197e-18
s(g38
g5
tp312
F3.7616728357200794e-16
s(g42
g11
tp313
F8.658801447791863e-25
s(g193
g5
tp314
F9.60101012609915e-26
s(g232
g11
tp315
F4.3334359817165274e-26
s(g101
g11
tp316
F2.3882026695341466e-26
s(g96
g5
tp317
F5.280612923612313e-25
s(g152
g14
tp318
F-0.002048116067838739
s((I9
I-1
tp319
g21
tp320
F3.3635391616145855e-19
s(g101
g14
tp321
F4.84149679797506e-26
s(g115
g14
tp322
F-0.00043374625915304336
s(g107
g8
tp323
F5.770501666294869e-26
s(g150
g26
tp324
F4.713659147203174e-25
s(g88
g26
tp325
F1.1006649977534161e-20
s(g73
g5
tp326
F4.2746169761580617e-23
s(g16
g14
tp327
F-2.855758448751514e-06
s(g23
g11
tp328
F3.93925004226122e-09
s(g176
g11
tp329
F3.9148038454764564e-08
s(g148
g5
tp330
F-9.986669645875533e-05
s(g73
g14
tp331
F-7.1497331159078475e-12
s(g28
g8
tp332
F2.1096408390244642e-25
s(g69
g5
tp333
F5.529612881403689e-12
s(g148
g11
tp334
F-5.537457801222263e-05
s(g229
g14
tp335
F2.6106044864832027e-11
s(g216
g8
tp336
F1.396934525569942e-22
s(g36
g11
tp337
F2.663068512076239e-24
s(g275
g14
tp338
F6.288701722806215e-23
s(g167
g8
tp339
F-6.904610193650591e-18
s(g44
g5
tp340
F4.9071514848183765e-23
s(g50
g11
tp341
F-6.29414542499405e-15
s(g262
g26
tp342
F-9.726959776139946e-17
s(g275
g5
tp343
F5.2423250673674004e-23
s(g50
g14
tp344
F5.648665930326764e-26
s(g319
g26
tp345
F5.417736133980061e-19
s(g105
g14
tp346
F-2.2559002803634544e-14
s(g262
g21
tp347
I0
s(g232
g14
tp348
F5.674772999730232e-26
s(g190
g8
tp349
F-7.706101831288274e-20
s(g124
g11
tp350
F4.084856099872081e-15
s(g169
g14
tp351
F-4.955972048346926e-10
stp352
Rp353
.