ccopy_reg
_reconstructor
p0
(cutil
Counter
p1
c__builtin__
dict
p2
(dp3
((I8
I-1
tp4
S'G'
p5
tp6
F2.7140720508034504e-07
s((I6
I1
tp7
S'L'
p8
tp9
F0.07301566809240669
s((I6
I2
tp10
g5
tp11
I0
s((I8
I2
tp12
g5
tp13
F2.0810040786976276e-06
s(g12
g8
tp14
F0.0002626406295786871
s((I7
I-1
tp15
g5
tp16
F0.10964775039036284
s((I8
I-3
tp17
S'R'
p18
tp19
F2.10024718380739e-07
s((I8
I-2
tp20
g5
tp21
F3.5035795364564026e-06
s((I8
I-4
tp22
g8
tp23
F1.2093982933641706e-05
s((I6
I0
tp24
g8
tp25
I0
s((I6
I-2
tp26
g8
tp27
F0.0020350053216258344
s((I7
I1
tp28
g18
tp29
F2.7969120427524916e-05
s((I8
I4
tp30
g18
tp31
F3.0482897269269354e-09
s(g28
g5
tp32
I0
s(g7
g5
tp33
F0.6811606129226733
s((I7
I-3
tp34
g18
tp35
F0.024987275046789
s(g30
g8
tp36
F4.8542177431656455e-05
s(g20
g8
tp37
F4.725159185363865e-06
s(g10
g18
tp38
I0
s((I7
I0
tp39
g18
tp40
F0.010811078646503396
s(g39
g8
tp41
F0.04722590796473628
s(g4
g8
tp42
F2.696096775972689e-07
s(g22
g5
tp43
F4.084549857707019e-08
s((I8
I0
tp44
g18
tp45
F1.0032485476454065e-06
s((I6
I-3
tp46
g18
tp47
F0.0033779542379183
s((I8
I3
tp48
g5
tp49
F4.39800390693519e-08
s((I8
I1
tp50
g8
tp51
F0.00013304814418615147
s((I5
I-2
tp52
g18
tp53
I0
s((I7
I-2
tp54
g8
tp55
F0.001256774294636817
s(g26
g5
tp56
F0.0019967876541132725
s(g50
g18
tp57
F9.628958588794723e-07
s(g54
g5
tp58
F0.013825366767420614
s((I5
I0
tp59
g5
tp60
I0
s((I7
I2
tp61
g18
tp62
I0
s((I5
I-1
tp63
g18
tp64
F0.7492718699687029
s(g44
g8
tp65
F1.1602541059374734e-06
s(g17
g8
tp66
F1.6508051017441765e-07
s(g22
g18
tp67
F3.809681869075101e-08
s(g15
g8
tp68
F0.07063147353259738
s(g28
g8
tp69
F0.03335220487114609
s(g39
g5
tp70
F0.00014910235690653037
s(g46
g5
tp71
F0.0016378283407071069
s(g7
g18
tp72
F0.0705046943471136
s(g12
g18
tp73
F3.4442220851384865e-07
s((I6
I-1
tp74
g5
tp75
F0.10540130073722383
s(g10
g8
tp76
F0.1809650725233159
s(g50
g5
tp77
F1.0136159331058296e-06
s(g61
g5
tp78
I0
s(g30
g5
tp79
F4.4290258814804e-07
s(g4
g18
tp80
F0.0004793768218415437
s(g52
g5
tp81
F0.8778850648889479
s(g74
g18
tp82
F0.1614605743680455
s((I5
I1
tp83
g5
tp84
I0
s(g34
g8
tp85
I0
s(g83
g8
tp86
I0
s(g17
g5
tp87
F2.0283965060335058e-07
s(g26
g18
tp88
F0.261702861043214
s(g44
g5
tp89
F0.008500528687805728
s(g48
g18
tp90
F3.034962225468851e-07
s(g52
g8
tp91
I0
s(g48
g8
tp92
F5.7878692901121093e-05
s(g20
g18
tp93
F1.0167511168887821e-05
s(g15
g18
tp94
F0.04565205682785646
s(g24
g18
tp95
F0.25695039290228494
s(g61
g8
tp96
F0.015513060925616315
s(g24
g5
tp97
I0
s(g59
g8
tp98
I0
s(g74
g8
tp99
F0.09516410659003299
s(g83
g18
tp100
I0
s(g63
g8
tp101
I0
s(g34
g5
tp102
F3.0517578125000024e-19
s(g59
g18
tp103
I0
s(g63
g5
tp104
I0
s(g46
g8
tp105
F0.0007328268533167766
s(g54
g18
tp106
F0.05619091348492255
stp107
Rp108
.