ccopy_reg
_reconstructor
p0
(cutil
Counter
p1
c__builtin__
dict
p2
(dp3
((I2
I-3
tp4
S'R'
p5
tp6
I0
s((I9
I-2
tp7
g5
tp8
F-1.1368452510885948e-08
s((I6
I2
tp9
S'G'
p10
tp11
F0.0001026077538589343
s((I8
I2
tp12
g10
tp13
F2.563084357991957e-09
s((I7
I-1
tp14
g5
tp15
F1.4006786991991145e-06
s(g12
S'L'
p16
tp17
F1.4276630441994941e-09
s((I9
I-4
tp18
g10
tp19
F-1.0477685604392513e-05
s(g14
g10
tp20
F1.41300646337137e-06
s((I1
I-4
tp21
g10
tp22
F0.5000000000043922
s((I8
I-1
tp23
g10
tp24
F4.5441624489715655e-08
s((I8
I-4
tp25
g16
tp26
F7.993283393628387e-09
s((I4
I4
tp27
g16
tp28
I0
s((I3
I-4
tp29
g16
tp30
I0
s((I9
I0
tp31
g10
tp32
I0
s((I4
I3
tp33
g16
tp34
F3.6252737615755198e-06
s((I5
I1
tp35
g16
tp36
F0.0023814463925892395
s((I8
I4
tp37
g5
tp38
F1.662034755442922e-07
s((I7
I1
tp39
g10
tp40
F9.740622131201592e-07
s((I6
I1
tp41
g10
tp42
F0.003525930565076431
s((I7
I-3
tp43
g5
tp44
F1.7988844195019482e-07
s(g33
g5
tp45
I0
s((I2
I1
tp46
g5
tp47
I0
s((I5
I4
tp48
g16
tp49
F2.7637745139593985e-05
s(g37
g16
tp50
F6.630493706734721e-10
s(g27
g10
tp51
F2.5590940882723875e-06
s((I3
I-3
tp52
g16
tp53
I0
s((I3
I1
tp54
g5
tp55
I0
s((I9
I3
tp56
g16
tp57
F-1.5342940557437593e-09
s((I2
I3
tp58
g16
tp59
I0
s((I4
I0
tp60
g10
tp61
F0.7148554349744887
s((I3
I2
tp62
g10
tp63
I0
s((I7
I0
tp64
g5
tp65
F3.7881660553229963e-06
s((I4
I-1
tp66
g5
tp67
F1.04419070114715e-06
s((I2
I-4
tp68
g10
tp69
I0
s((I6
I4
tp70
g16
tp71
F1.1612357285083252e-06
s(g68
g16
tp72
I0
s((I9
I1
tp73
g5
tp74
I0
s(g64
g16
tp75
I0
s(g70
g5
tp76
I0
s(g29
g10
tp77
I0
s((I6
I-2
tp78
g5
tp79
F5.580679125575199e-06
s((I5
I2
tp80
g16
tp81
F6.359757642712355e-06
s((I9
I2
tp82
g10
tp83
F6.198663410225734e-08
s(g25
g10
tp84
F-2.2677778223430032e-07
s((I6
I-4
tp85
g5
tp86
F3.305820479757287e-08
s((I8
I0
tp87
g5
tp88
F1.9879751803998287e-08
s((I6
I-3
tp89
g5
tp90
F2.0138740292423675e-08
s((I8
I3
tp91
g10
tp92
F2.9322897848718875e-10
s((I6
I-1
tp93
g10
tp94
F6.335928494656591e-05
s(g41
g16
tp95
F8.877614370224069e-05
s((I3
I3
tp96
g10
tp97
F2.6334982193323075e-07
s((I8
I1
tp98
g5
tp99
F3.5038053469468457e-07
s((I7
I-2
tp100
g10
tp101
F1.113874716201691e-06
s((I4
I-4
tp102
g5
tp103
F9.81591964272435e-07
s((I9
I-3
tp104
g16
tp105
F-1.4812725182363978e-08
s((I2
I-1
tp106
g16
tp107
I0
s((I5
I-2
tp108
g5
tp109
F0.000810434766117266
s((I3
I-1
tp110
g10
tp111
I0
s(g7
g16
tp112
F4.89159751090843e-08
s(g14
g16
tp113
F0.00012735255722259273
s(g31
g5
tp114
F3.6305028167469745e-09
s(g64
g10
tp115
F0.00018596704371677165
s(g21
g16
tp116
I0
s((I5
I-3
tp117
g5
tp118
F3.466138399536717e-05
s((I10
I4
tp119
g10
tp120
F-2.1498812979984488e-09
s(g21
g5
tp121
I0
s(g78
g10
tp122
F9.080266304653496e-06
s(g9
g16
tp123
F2.339354844393557e-05
s((I4
I1
tp124
g16
tp125
F4.8231380979885663e-08
s((I2
I0
tp126
g10
tp127
I0
s((I7
I4
tp128
g16
tp129
I0
s(g124
g10
tp130
I0
s((I7
I2
tp131
g10
tp132
F8.118349891917858e-05
s(g37
g10
tp133
F6.373721444607269e-10
s(g4
g10
tp134
I0
s((I4
I-3
tp135
g16
tp136
F2.688986491052911e-07
s(g135
g10
tp137
F0.00012761629300898694
s(g62
g16
tp138
F4.732954829965069e-08
s(g60
g5
tp139
F0.022090769987796407
s(g93
g5
tp140
F1.9467157530630645e-05
s(g87
g10
tp141
F3.240961288919147e-07
s((I10
I-4
tp142
g10
tp143
I0
s(g66
g10
tp144
F0.03841035695697333
s(g48
g10
tp145
F3.390763032486438e-25
s((I3
I0
tp146
g16
tp147
F0.6004368968090713
s((I5
I-1
tp148
g16
tp149
F0.04488523580748864
s((I2
I-2
tp150
g10
tp151
I0
s(g73
g16
tp152
I0
s(g91
g16
tp153
F-9.071402128591898e-09
s(g78
g16
tp154
F3.264494008419553e-05
s((I7
I3
tp155
g10
tp156
F2.8146747314762544e-07
s(g102
g10
tp157
I0
s((I6
I0
tp158
g5
tp159
I0
s((I3
I-2
tp160
g5
tp161
F1.15878496896645e-06
s(g48
g5
tp162
I0
s((I6
I3
tp163
g16
tp164
I0
s(g52
g10
tp165
F5.883324990028007e-06
s(g131
g16
tp166
F6.79604317825317e-07
s(g163
g10
tp167
F1.1800935204965939e-05
s(g104
g5
tp168
F-0.0019095766941839862
s(g108
g16
tp169
F0.011782276874662807
s(g43
g10
tp170
F1.9926722214241913e-07
s(g96
g5
tp171
I0
s(g108
g10
tp172
F1.6646362435517094e-05
s(g7
g10
tp173
F1.6561915358730202e-09
s(g142
g16
tp174
I0
s(g126
g16
tp175
I0
s(g27
g5
tp176
F1.9423182203686463e-08
s((I5
I3
tp177
g10
tp178
I0
s((I4
I2
tp179
g5
tp180
F2.1700883407913225e-35
s((I8
I-2
tp181
g10
tp182
F9.490543451733077e-10
s(g155
g16
tp183
F2.0498559628230022e-07
s((I9
I4
tp184
g10
tp185
F-3.183658861134693e-09
s(g100
g16
tp186
F2.067901127326929e-06
s(g119
g5
tp187
F-3.023649324540362e-12
s(g4
g16
tp188
F0.8000000075778604
s(g155
g5
tp189
F5.130069074805259e-05
s(g70
g10
tp190
F4.697648398076785e-13
s(g160
g16
tp191
F0.3124620728782598
s((I8
I-3
tp192
g5
tp193
F3.2632277426142733e-09
s((I5
I-4
tp194
g5
tp195
F1.427716140540241e-07
s(g56
g5
tp196
F2.5304613346793077e-09
s((I4
I-2
tp197
g10
tp198
F2.3664063787409895e-06
s(g93
g16
tp199
F0.00014930993042156583
s(g82
g16
tp200
F6.012761546747294e-11
s(g135
g5
tp201
F7.542472693516671e-06
s(g82
g5
tp202
F1.3586446233847105e-10
s(g110
g16
tp203
F0.3379958937733658
s(g181
g16
tp204
F2.7380745585731185e-08
s(g41
g5
tp205
F0.00029545209880236427
s(g106
g5
tp206
I0
s(g104
g10
tp207
F-2.172411357566737e-06
s(g9
g5
tp208
F0.0006801246967413973
s(g184
g16
tp209
F-1.104058514961608e-07
s(g124
g5
tp210
F0.08643293986486662
s(g18
g16
tp211
F-7.63830011421142e-05
s(g184
g5
tp212
F2.7336350772948598e-09
s((I7
I-4
tp213
g5
tp214
I0
s(g66
g16
tp215
F0.13278059288863894
s((I9
I-1
tp216
g5
tp217
F5.8526500675555565e-09
s(g23
g16
tp218
F1.2033637256682839e-07
s(g12
g5
tp219
F3.832717523276518e-07
s(g80
g10
tp220
I0
s((I10
I3
tp221
g5
tp222
I0
s(g54
g16
tp223
I0
s(g117
g10
tp224
F5.097865453195248e-05
s(g126
g5
tp225
I0
s(g98
g16
tp226
F1.5331029772880068e-07
s(g102
g16
tp227
F8.299540505116567e-06
s(g110
g5
tp228
F0.22095556735221544
s(g148
g5
tp229
F0.00024254257246288357
s(g96
g16
tp230
I0
s(g58
g10
tp231
F0.4999000001486811
s((I5
I0
tp232
g10
tp233
F0.04423505047913165
s(g131
g5
tp234
F7.565127209644414e-07
s(g128
g5
tp235
I0
s(g56
g10
tp236
F2.975750726858335e-11
s(g87
g16
tp237
F6.362521453003079e-07
s(g192
g16
tp238
F8.880340956994316e-09
s(g25
g5
tp239
F1.0592272214134831e-08
s(g35
g5
tp240
F0.020746748814546922
s(g181
g5
tp241
F2.458528257097484e-09
s(g158
g16
tp242
F0.0010884522879637645
s(g89
g10
tp243
F2.2886666510091418e-08
s(g18
g5
tp244
F-2.0308676691902015e-06
s(g177
g5
tp245
F6.047989104062337e-06
s(g119
g16
tp246
F-6.1588791126523054e-12
s(g46
g10
tp247
I0
s(g31
g16
tp248
I0
s(g177
g16
tp249
I0
s(g213
g16
tp250
F1.7739687841918842e-07
s(g117
g16
tp251
F0.001600306299634856
s(g98
g10
tp252
F5.0514348839951155e-06
s(g160
g10
tp253
F4.1855916001041415e-08
s(g54
g10
tp254
F1.0005843157050358
s(g52
g5
tp255
F6.380312498758088e-06
s(g23
g5
tp256
F5.474160809961441e-09
s(g62
g5
tp257
I0
s(g43
g16
tp258
F4.2483428634189465e-06
s(g148
g10
tp259
F0.007178480650977518
s(g197
g5
tp260
F7.0123872550791485e-06
s(g35
g10
tp261
F0.006282249563613531
s(g150
g5
tp262
I0
s(g39
g5
tp263
F3.52139171274364e-05
s(g192
g10
tp264
F3.230380241464458e-15
s(g29
g5
tp265
F2.6324959121403557e-07
s(g33
g10
tp266
F3.1641754849206924e-08
s(g163
g5
tp267
F0.0002775998906572096
s(g194
g10
tp268
F9.584519427105871e-07
s(g85
g10
tp269
F1.4891730682489718e-06
s(g80
g5
tp270
F0.010774032307158593
s(g150
g16
tp271
I0
s(g216
g16
tp272
I0
s(g85
g16
tp273
F4.601713239882259e-06
s(g91
g5
tp274
F7.699569288328802e-07
s(g128
g10
tp275
F1.590124682109946e-08
s(g73
g10
tp276
F8.565442683973169e-12
s(g213
g10
tp277
F1.1302959574178582e-10
s(g46
g16
tp278
I0
s(g68
g5
tp279
I0
s(g146
g5
tp280
F0.564258355767328
s(g60
g16
tp281
F0.015658036951991097
s(g100
g5
tp282
F6.329896744192664e-07
s(g58
g5
tp283
I0
s(g146
g10
tp284
F1.0500546109866418
s(g158
g10
tp285
F4.360751527785057e-05
s(g232
g16
tp286
F0.005249926900370194
s(g142
g5
tp287
I0
s(g39
g16
tp288
F8.266829436983411e-06
s(g179
g10
tp289
F5.425220851978303e-32
s(g221
g10
tp290
F-1.5118246622701807e-10
s(g232
g5
tp291
F0.016666412678359815
s(g179
g16
tp292
F3.447143842163532e-07
s(g216
g10
tp293
F6.995123320504714e-14
s(g89
g16
tp294
F8.562271291092727e-06
s(g221
g16
tp295
F-2.4635516450609222e-15
s(g194
g16
tp296
F0.00021161772082989007
s(g106
g10
tp297
I0
s(g197
g16
tp298
I0
stp299
Rp300
.