ccopy_reg
_reconstructor
p0
(cutil
Counter
p1
c__builtin__
dict
p2
(dp3
((I2
I-3
tp4
S'R'
p5
tp6
F1.1187454229370708e-14
s((I9
I-2
tp7
S'R'
p8
tp9
F-8.381809587771924e-17
s((I1
I3
tp10
S'L'
p11
tp12
F-0.5
s((I2
I1
tp13
g5
tp14
F-0.017463432779626246
s((I1
I4
tp15
g11
tp16
F-0.12499991238602057
s((I7
I-2
tp17
S'G'
p18
tp19
F4.9468455008821885e-30
s((I1
I-4
tp20
S'G'
p21
tp22
F2.624806291071414e-09
s((I9
I0
tp23
g18
tp24
F8.057614367508242e-24
s((I8
I4
tp25
g8
tp26
F1.0082256319782045e-29
s((I7
I-3
tp27
g8
tp28
F7.655847904103977e-30
s((I2
I4
tp29
g11
tp30
F1.8610581901469865e-10
s((I4
I2
tp31
g21
tp32
F-1.1983138919528081e-20
s((I3
I4
tp33
g5
tp34
F1.637516573027594e-17
s((I2
I3
tp35
g11
tp36
F1.0674427523617247e-13
s(g15
g5
tp37
F-1.6149626501669555e-78
s((I6
I4
tp38
g11
tp39
F2.7486939944987575e-30
s((I7
I0
tp40
S'L'
p41
tp42
F1.2316563410287422e-29
s(g38
g5
tp43
F5.093687703750003e-31
s((I3
I-4
tp44
g21
tp45
F4.516205760702889e-24
s((I6
I-2
tp46
g5
tp47
F3.4980236364242715e-30
s((I9
I2
tp48
g18
tp49
F1.0034721102094635e-26
s((I6
I-4
tp50
g5
tp51
F2.1154957125796044e-29
s((I8
I0
tp52
g8
tp53
F1.6050886338957298e-30
s((I6
I-3
tp54
g5
tp55
F7.393623231828879e-30
s((I3
I-1
tp56
g5
tp57
F8.228948161962011e-25
s((I7
I-1
tp58
g18
tp59
F6.923017535996367e-30
s((I9
I-3
tp60
g41
tp61
F-1.4216582454806233e-14
s((I1
I0
tp62
g5
tp63
F-1.0127357498800618
s((I5
I-2
tp64
g5
tp65
F2.654507501620086e-30
s((I10
I4
tp66
g18
tp67
F0.0
s((I3
I3
tp68
g11
tp69
F9.820560398900871e-18
s((I6
I-1
tp70
g21
tp71
F1.1349431623675912e-29
s((I2
I0
tp72
g21
tp73
F-0.652371357209705
s(g25
g18
tp74
F-1.399752363204022e-20
s((I4
I-3
tp75
g11
tp76
F4.114464438953582e-30
s(g75
g21
tp77
F5.395208873105576e-30
s((I3
I2
tp78
g11
tp79
F1.3901587832301623e-18
s(g52
g18
tp80
F1.7499340871112093e-31
s(g35
g21
tp81
F1.5663382074665514e-11
s((I10
I-4
tp82
g18
tp83
F-1.0270275263748602e-14
s((I3
I0
tp84
g11
tp85
F-1.8406436499595848e-08
s((I9
I1
tp86
g41
tp87
F3.8004187141108426e-25
s((I1
I-2
tp88
g11
tp89
F-0.7499999999941394
s((I8
I3
tp90
g41
tp91
F9.589785872590572e-30
s((I7
I3
tp92
g18
tp93
F4.368578693796058e-30
s((I4
I-4
tp94
g21
tp95
F3.6628068212505503e-29
s((I6
I0
tp96
g5
tp97
F8.271530228266284e-30
s(g33
g11
tp98
F1.9993768898662904e-17
s(g33
g21
tp99
F1.1402159400428385e-17
s(g60
g8
tp100
F-1.9500597238074373e-14
s(g27
g18
tp101
F2.4333665806296514e-30
s(g88
g21
tp102
F4.638722274946133e-05
s((I4
I4
tp103
g5
tp104
F1.8224283744562026e-27
s((I6
I1
tp105
g21
tp106
F1.347518407162897e-29
s((I8
I-1
tp107
g18
tp108
F3.03625665071559e-31
s(g66
g8
tp109
F-1.7261525484126472e-16
s((I3
I3
tp110
g21
tp111
F3.97595237394687e-18
s(g4
g11
tp112
F1.0399229935956132e-14
s(g92
g8
tp113
F5.169239528496522e-30
s(g62
g21
tp114
F-0.9787499998528725
s((I5
I-4
tp115
g5
tp116
F5.366376059615532e-30
s((I4
I-1
tp117
g21
tp118
F-6.319927387581783e-14
s(g70
g11
tp119
F9.06401256660981e-30
s(g29
g5
tp120
F1.615971120944716e-12
s(g75
g5
tp121
F6.782209258013381e-29
s(g48
g8
tp122
F3.2966954146504717e-25
s(g88
g5
tp123
F-0.37499999912131615
s((I2
I-2
tp124
g5
tp125
F4.889054499542042e-15
s((I2
I2
tp126
g5
tp127
F-0.018308300271085657
s((I6
I2
tp128
g5
tp129
F1.0362017070629984e-29
s((I9
I4
tp130
g41
tp131
F5.861578207593245e-29
s((I4
I1
tp132
g5
tp133
F-7.1428933914515125e-09
s(g130
g8
tp134
F1.576158466542955e-26
s(g62
g11
tp135
F-0.3216708205580625
s((I5
I2
tp136
g21
tp137
F7.04075837783954e-30
s((I10
I3
tp138
g8
tp139
F0.0
s(g94
g11
tp140
F4.202317886011487e-29
s((I5
I-1
tp141
g5
tp142
F4.059402036474971e-28
s((I8
I-2
tp143
g8
tp144
F-1.4647100065032755e-26
s((I1
I1
tp145
g11
tp146
F-0.20342874277201012
s((I5
I0
tp147
g21
tp148
F8.138178918382328e-28
s((I7
I2
tp149
g8
tp150
F8.990525411108702e-30
s((I1
I-1
tp151
g21
tp152
F-0.879999999801032
s(g145
g21
tp153
F-0.9218749988860445
s(g96
g11
tp154
F1.1997244076254583e-29
s(g54
g21
tp155
F-2.780844079534416e-17
s(g141
g11
tp156
F2.772958151773593e-28
s((I7
I-4
tp157
g8
tp158
F5.888721387368113e-30
s(g13
g21
tp159
F-0.07229778011639462
s((I5
I-3
tp160
g11
tp161
F1.5356314087665257e-30
s((I8
I1
tp162
g18
tp163
F3.9100329371438014e-30
s(g110
g5
tp164
F5.686042409117626e-18
s(g151
g5
tp165
F-0.6058795794376366
s((I3
I-3
tp166
g5
tp167
F1.5955749123466735e-27
s((I10
I-3
tp168
g18
tp169
F-2.5547826771660184e-18
s(g27
g41
tp170
F3.0560562094553027e-30
s(g141
g21
tp171
F-5.368708259578429e-11
s((I10
I2
tp172
S'R'
p173
tp174
F1.4682339684531753e-23
s(g117
g5
tp175
F9.808224691679258e-29
s((I8
I-3
tp176
g18
tp177
F-2.831618489799186e-19
s(g7
g41
tp178
F9.680705967342528e-24
s(g56
g11
tp179
F-0.00021690257986047985
s(g90
g8
tp180
F2.3158544589451094e-30
s((I7
I4
tp181
g18
tp182
F2.682104034630993e-29
s(g86
g18
tp183
F1.0061002555434134e-24
s(g157
g18
tp184
F1.0847717730210513e-28
s(g13
g11
tp185
F-1.4278766137712706e-06
s((I2
I-4
tp186
g5
tp187
F7.800797083651049e-14
s((I1
I2
tp188
g21
tp189
F1.9967944231608404e-08
s(g84
g5
tp190
F-4.9933348229377664e-05
s(g107
g8
tp191
F4.470048875524353e-31
s(g58
g8
tp192
F7.889846526085198e-30
s(g35
g5
tp193
F5.529612881403689e-12
s(g84
g21
tp194
F-5.537457801222263e-05
s(g126
g11
tp195
F1.618569594267928e-11
s(g82
g8
tp196
F-6.904610193650591e-18
s((I7
I1
tp197
g41
tp198
F1.836260216021106e-29
s(g105
g5
tp199
F1.2075112761939e-29
s(g147
g5
tp200
F5.828614155652338e-28
s(g31
g11
tp201
F1.0412842555599896e-30
s(g128
g21
tp202
F1.2144619973521242e-29
s((I8
I2
tp203
g18
tp204
F3.0427488850609333e-30
s(g17
g8
tp205
F3.229689042986656e-30
s(g203
g41
tp206
F2.692111241876414e-30
s((I9
I-4
tp207
g18
tp208
F-3.6081345733411084e-14
s(g143
g18
tp209
F4.939437744885774e-32
s((I8
I-4
tp210
g41
tp211
F-8.493668381467156e-29
s(g103
g11
tp212
F2.3960346002349933e-27
s(g44
g11
tp213
F4.6557828519478754e-24
s((I4
I3
tp214
g11
tp215
F7.923743487644074e-30
s(g197
g8
tp216
F2.371573321621726e-29
s(g197
g18
tp217
F2.9534290113392253e-29
s(g31
g5
tp218
F-1.0971954885177585e-15
s(g166
g21
tp219
F1.8122552059761062e-27
s(g214
g5
tp220
F9.913123729251147e-30
s((I5
I4
tp221
g11
tp222
F1.205073055567249e-30
s(g25
g41
tp223
F6.725389406085227e-29
s(g166
g11
tp224
F1.2207419967896638e-27
s((I3
I1
tp225
g5
tp226
F-6.70405509758065e-06
s((I9
I3
tp227
g41
tp228
F1.7059064985858677e-27
s((I4
I0
tp229
g21
tp230
F-1.2077957559776368e-08
s(g78
g21
tp231
F1.576457198170923e-18
s(g40
g8
tp232
F1.2977218654435242e-29
s((I4
I-2
tp233
g5
tp234
F2.8081696641321098e-30
s(g186
g21
tp235
F3.7703997816504275e-13
s((I1
I-3
tp236
g21
tp237
F1.254364967444193e-11
s(g186
g11
tp238
F5.2949757185002174e-14
s(g86
g8
tp239
F1.7106982418460705e-24
s(g236
g11
tp240
F-0.4999999999987064
s(g136
g11
tp241
F9.93135650137742e-30
s(g210
g18
tp242
F2.9836307215963213e-28
s(g90
g18
tp243
F4.2546691735036586e-30
s(g145
g5
tp244
F-0.9682696079451621
s(g105
g11
tp245
F1.6290870736534128e-29
s(g162
g8
tp246
F3.868749910212516e-30
s(g94
g5
tp247
F3.2398806117485875e-28
s((I2
I-1
tp248
g11
tp249
F-0.002048116067838739
s((I3
I-2
tp250
g21
tp251
F8.405003202832334e-28
s((I9
I-1
tp252
g41
tp253
F2.184576018047861e-23
s(g17
g41
tp254
F4.196344943104162e-30
s(g23
g8
tp255
F6.194552393020976e-24
s(g40
g18
tp256
F1.311711241971317e-29
s(g20
g11
tp257
F-0.4999999987046448
s(g160
g5
tp258
F1.9827563860076178e-30
s(g236
g5
tp259
F-0.2499999996497764
s(g20
g5
tp260
F-0.37499995806573844
s(g128
g11
tp261
F1.4071775343276452e-29
s(g132
g11
tp262
F5.496120214433954e-28
s(g181
g41
tp263
F1.3174896387327738e-29
s(g248
g5
tp264
F1.6699400237614258e-05
s(g149
g18
tp265
F9.233567382496358e-30
s(g4
g21
tp266
F7.020396591084071e-15
s(g229
g5
tp267
F1.6467460697630773e-25
s(g70
g5
tp268
F7.752570538700537e-30
s(g233
g21
tp269
F2.837172342175036e-30
s(g221
g21
tp270
F1.3679632364990514e-30
s(g124
g21
tp271
F3.9070037548311584e-15
s(g188
g11
tp272
F3.021719904252283e-11
s(g46
g11
tp273
F3.1369648318659384e-30
s(g130
g18
tp274
F-5.706022130010721e-16
s(g221
g5
tp275
F6.951773868917529e-31
s(g168
g41
tp276
I0
s((I6
I3
tp277
g11
tp278
F3.7084751024423287e-31
s(g149
g41
tp279
F7.990365748896946e-30
s(g277
g21
tp280
F1.0267705887327654e-30
s(g64
g11
tp281
F-5.949008499268631e-14
s(g56
g21
tp282
F-0.002498181801453166
s(g64
g21
tp283
F2.582222432868436e-30
s(g252
g18
tp284
F1.4815283711601498e-23
s(g82
g41
tp285
F-9.035424406182751e-19
s(g72
g11
tp286
F-0.0719826841614185
s(g138
g18
tp287
F-9.726959776139946e-17
s(g29
g21
tp288
F4.2906916054989086e-14
s(g151
g11
tp289
F-1.007867856583822
s((I5
I3
tp290
g21
tp291
F7.442819500488669e-31
s(g92
g41
tp292
F2.4259606846279214e-29
s(g58
g41
tp293
F7.076576255974749e-30
s(g38
g21
tp294
F4.839093070146322e-31
s(g10
g5
tp295
F-0.25499999995855727
s(g176
g8
tp296
F-3.5432014494612917e-20
s(g126
g21
tp297
F2.867499453087671e-12
s(g227
g8
tp298
F6.958518647291419e-26
s(g172
S'G'
p299
tp300
F0.0
s(g48
g41
tp301
F2.4649800503059044e-26
s(g250
g11
tp302
F-5.355990030816905e-16
s(g143
g41
tp303
F1.765756583309908e-30
s(g60
g18
tp304
F-1.4766928878010684e-26
s(g188
g5
tp305
F-0.7499928006486813
s(g207
g41
tp306
F-5.341975817422517e-16
s(g96
g21
tp307
F1.2927874859408178e-29
s(g233
g11
tp308
F-1.4560655958189215e-22
s((I9
I-1
tp309
g8
tp310
F1.6281377643717192e-23
s(g107
g41
tp311
F7.53824296635308e-30
s(g103
g21
tp312
F1.8164544931236716e-27
s(g225
g11
tp313
F-1.409678814977319e-15
s(g160
g21
tp314
F1.8234060914301653e-30
s(g72
g5
tp315
F-0.00029761161603942144
s(g162
g41
tp316
F3.0344266973914655e-30
s(g250
g5
tp317
F4.514936483211361e-28
s(g46
g21
tp318
F-5.599755967346223e-16
s(g10
g21
tp319
F2.394532132409483e-11
s(g181
g8
tp320
F1.3741862294416746e-29
s(g227
g18
tp321
F8.105269505048424e-27
s(g52
g41
tp322
F3.6820874335198266e-30
s(g176
g41
tp323
F-8.238497442879337e-28
s(g210
g8
tp324
F-8.58274664857137e-27
s((I5
I1
tp325
g5
tp326
F2.846105332366531e-28
s(g207
g8
tp327
F2.8769130414155533e-27
s(g290
g5
tp328
F8.846729337457504e-31
s(g66
g41
tp329
F-2.0540550527497203e-16
s(g203
g8
tp330
F3.281806088938587e-30
s(g23
g41
tp331
F5.0781875474000584e-24
s(g290
g11
tp332
F1.0260103127044254e-30
s(g157
g41
tp333
F6.402781872606386e-30
s(g225
g21
tp334
F-2.0534297543699593e-06
s(g78
g5
tp335
F-4.127090538301774e-09
s(g325
g21
tp336
F-5.672687570879623e-19
s(g132
g21
tp337
F-3.4597685249621693e-13
s(g325
g11
tp338
F7.837300253078873e-29
s(g172
S'L'
p339
tp340
I0
s(g44
g5
tp341
F8.606719042938184e-24
s(g214
g21
tp342
F1.5625845313174672e-29
s(g277
g5
tp343
F3.917858156403783e-31
s(g115
g21
tp344
F8.002981414531465e-30
s(g50
g21
tp345
F3.6894736396004126e-30
s(g136
g5
tp346
F4.7427602579291197e-29
s(g124
g11
tp347
F-5.539382840660369e-11
s(g50
g11
tp348
F8.378349233771678e-31
s(g15
g21
tp349
F2.006846177410204e-09
s(g229
g11
tp350
F-2.2342912779566518e-13
s(g147
g11
tp351
F8.696595887863709e-28
s(g7
g18
tp352
F-2.9880829180659503e-13
s(g54
g11
tp353
F-7.049688375946703e-16
s(g138
g41
tp354
F0.0
s(g115
g11
tp355
F4.648351213189518e-30
s(g168
g8
tp356
F-7.706101831288274e-20
s(g248
g21
tp357
F-0.5002572659295071
s(g117
g11
tp358
F-2.8864652456274727e-11
stp359
Rp360
.