ccopy_reg
_reconstructor
p0
(cutil
Counter
p1
c__builtin__
dict
p2
(dp3
S'R'
p4
g0
(g1
g2
(dp5
S'angle'
p6
cnumpy.core.multiarray
scalar
p7
(cnumpy
dtype
p8
(S'f8'
p9
I0
I1
tp10
Rp11
(I3
S'<'
p12
NNNI-1
I-1
I0
tp13
bS'TP@N\x08 \x84?'
p14
tp15
Rp16
sS'bias'
p17
g7
(g11
S' \xf3\xaew\t+\xa5?'
p18
tp19
Rp20
sS'dist'
p21
g7
(g11
S'B)|I\xa0\x0f\xc1\xbf'
p22
tp23
Rp24
sS'angleSq'
p25
g7
(g11
S'\xeeI+\x9f\x87~\x87\xbf'
p26
tp27
Rp28
stp29
Rp30
sS'L'
p31
g0
(g1
g2
(dp32
g6
g7
(g11
S'\x94\xdaC\x9a\x05\xc5\x8a\xbf'
p33
tp34
Rp35
sg17
g7
(g11
S'\xe0\xb8\x91\x8c\xca~\xa5?'
p36
tp37
Rp38
sg21
g7
(g11
S'\xe6\xe0h\xbb-J\xc3\xbf'
p39
tp40
Rp41
sg25
g7
(g11
S'\xae\xf9Ab\x8d\xd9\x8b\xbf'
p42
tp43
Rp44
stp45
Rp46
sS'G'
p47
g0
(g1
g2
(dp48
g6
g7
(g11
S'\x18&|\xa88\x95\xa0\xbf'
p49
tp50
Rp51
sg17
g7
(g11
S'\x0c\x8f\xca\xdbI\x93\xe4?'
p52
tp53
Rp54
sg21
g7
(g11
S'\x90\x10Q\xaef8\x0b\xc0'
p55
tp56
Rp57
sg25
g7
(g11
S'\xb5\x1e7!\x17L\xc3\xbf'
p58
tp59
Rp60
stp61
Rp62
stp63
Rp64
.