ccopy_reg
_reconstructor
p0
(cutil
Counter
p1
c__builtin__
dict
p2
(dp3
S'R'
p4
g0
(g1
g2
(dp5
S'angle'
p6
cnumpy.core.multiarray
scalar
p7
(cnumpy
dtype
p8
(S'f8'
p9
I0
I1
tp10
Rp11
(I3
S'<'
p12
NNNI-1
I-1
I0
tp13
bS'\xa6): 7\x1eC\xbf'
p14
tp15
Rp16
sS'bias'
p17
g7
(g11
S'\xff\xbf\xea\xce\x93\x0e\xc0\xbf'
p18
tp19
Rp20
sS'dist'
p21
g7
(g11
S'/\x8e\xe5\xa9\xa7\xf1\xe0?'
p22
tp23
Rp24
sS'angleSq'
p25
g7
(g11
S'\xf6\xb0B_\x0e\x10I?'
p26
tp27
Rp28
stp29
Rp30
sS'L'
p31
g0
(g1
g2
(dp32
g6
g7
(g11
S'jf:\xcc\xb9\xda\x1e?'
p33
tp34
Rp35
sg17
g7
(g11
S'\xaf\x17\x04\x0br\xb9\xb9\xbf'
p36
tp37
Rp38
sg21
g7
(g11
S'M\xb3\x96\x1d0\x15\xdb?'
p39
tp40
Rp41
sg25
g7
(g11
S'\xbe\xdc\x93\x8f\t\xfcB?'
p42
tp43
Rp44
stp45
Rp46
sS'G'
p47
g0
(g1
g2
(dp48
g6
g7
(g11
S'/\xdb:\xf0\x1dt<\xbf'
p49
tp50
Rp51
sg17
g7
(g11
S'\xec:r\x80\x1a\xf6\xcd\xbf'
p52
tp53
Rp54
sg21
g7
(g11
S'8uS\x8d\x13\x1d\xf0?'
p55
tp56
Rp57
sg25
g7
(g11
S'o\xf6\x0c8\x19\xa2Q?'
p58
tp59
Rp60
stp61
Rp62
stp63
Rp64
.