ccopy_reg
_reconstructor
p0
(cutil
Counter
p1
c__builtin__
dict
p2
(dp3
((I2
I-3
tp4
S'R'
p5
tp6
F0.0024360295861197583
s((I6
I2
tp7
S'G'
p8
tp9
F0.0005793003592828401
s((I1
I3
tp10
S'L'
p11
tp12
F-0.5
s((I2
I1
tp13
g5
tp14
F-0.016631297549193347
s((I1
I4
tp15
g11
tp16
F-0.12499991238602057
s((I1
I-4
tp17
g8
tp18
F0.0015036933457860439
s((I4
I4
tp19
g11
tp20
F0.002424022445910998
s((I3
I-4
tp21
g11
tp22
F0.0015672241900921396
s((I4
I3
tp23
g11
tp24
F0.0018516833594714294
s((I5
I1
tp25
g11
tp26
F0.0021204194560770053
s((I6
I1
tp27
g8
tp28
F0.0015413975730942686
s(g23
g5
tp29
F0.001874772459874834
s((I5
I4
tp30
g11
tp31
F0.002375369857508736
s((I2
I4
tp32
g11
tp33
F2.3312503476260905e-10
s((I3
I-3
tp34
g11
tp35
F0.0007127834150134474
s((I3
I1
tp36
g5
tp37
F-5.3242568327983575e-05
s((I3
I4
tp38
g5
tp39
F0.002168861211633988
s((I2
I3
tp40
g11
tp41
F0.0026371467478966907
s((I4
I0
tp42
g8
tp43
F1.461574639777413e-10
s((I3
I2
tp44
g8
tp45
F6.810836978421206e-11
s((I4
I-2
tp46
g5
tp47
F0.002290534055883323
s(g15
g5
tp48
F3.765913522579511e-11
s((I6
I4
tp49
g11
tp50
F0.0008371990902277359
s((I1
I-3
tp51
g8
tp52
F0.002249526336506639
s((I2
I-4
tp53
g11
tp54
F0.002445240050472021
s(g51
g11
tp55
F-0.4999999999987064
s(g49
g5
tp56
F0.0007078271128515495
s(g21
g8
tp57
F0.0023385498451676053
s((I6
I-1
tp58
g5
tp59
F0.002486001636642389
s((I5
I2
tp60
g11
tp61
F0.0010448184209184215
s((I6
I-4
tp62
g5
tp63
F0.001783764352565509
s((I6
I-3
tp64
g5
tp65
F0.002318222273325666
s((I6
I-2
tp66
g8
tp67
F0.0010541024045213796
s((I1
I1
tp68
g5
tp69
F-0.7778451799187425
s(g27
g11
tp70
F0.0023314399025288444
s((I3
I-1
tp71
g5
tp72
F0.002254046896729965
s((I4
I-4
tp73
g5
tp74
F0.002214168083137926
s((I2
I-2
tp75
g11
tp76
F-0.31250463078051516
s((I1
I0
tp77
g5
tp78
F-1.0127357498800618
s((I5
I-1
tp79
g5
tp80
F0.0022892055854035276
s(g71
g8
tp81
F-0.0005335836062179809
s(g17
g11
tp82
F-0.4999999987046448
s((I5
I-3
tp83
g5
tp84
F-0.0037426346913391724
s(g51
g5
tp85
F-0.2499999996497764
s(g17
g5
tp86
F-0.37499995806573844
s(g58
g8
tp87
F1.1753301986617702e-07
s(g7
g11
tp88
F0.0016893871640626143
s((I4
I1
tp89
g11
tp90
F0.0022821683970626057
s((I2
I0
tp91
g8
tp92
F-0.21724271452535868
s((I2
I-1
tp93
g5
tp94
F-0.04224720158850652
s(g4
g8
tp95
F0.0013450372408291876
s((I4
I-3
tp96
g11
tp97
F0.0021040292199265612
s(g96
g8
tp98
F0.0023587549690814607
s(g44
g11
tp99
F0.0023101737827194045
s(g66
g5
tp100
F0.0023590451521550908
s(g68
g11
tp101
F-0.6273787063765367
s(g89
g8
tp102
F-1.5711225154532698e-07
s((I4
I-1
tp103
g8
tp104
F0.0022084374465268152
s(g30
g8
tp105
F0.0013409586195830138
s((I3
I0
tp106
g11
tp107
F0.001960992003380977
s(g79
g11
tp108
F0.0021582549555411406
s((I1
I2
tp109
g11
tp110
F6.018580621191275e-11
s((I1
I-1
tp111
g11
tp112
F-1.007867856583822
s(g58
g11
tp113
F0.0017288228610499294
s(g73
g8
tp114
F0.0025600209515119435
s((I6
I0
tp115
g5
tp116
I0
s(g38
g11
tp117
F0.002266491022346048
s(g53
g5
tp118
F0.0011562448464250328
s((I6
I3
tp119
g11
tp120
F-0.008622236903681307
s(g38
g8
tp121
F0.002075486158562548
s((I1
I-2
tp122
g5
tp123
F-0.37499999912131615
s(g119
g8
tp124
F-0.008429201415584566
s((I5
I-2
tp125
g11
tp126
F0.0022415118348084713
s((I3
I-2
tp127
g8
tp128
F0.002212421019482111
s(g125
g8
tp129
F0.0015251601559229078
s(g91
g11
tp130
F-0.08126901701194357
s(g19
g5
tp131
F0.0017972703423955497
s(g32
g8
tp132
F0.0023789771470015845
s((I5
I3
tp133
g8
tp134
F0.0014080600308911204
s((I4
I2
tp135
g5
tp136
F0.002147352742175853
s((I3
I3
tp137
g8
tp138
F0.002321361850505428
s(g4
g11
tp139
F0.0013614454058848322
s(g49
g8
tp140
F0.0009111759726267762
s(g10
g5
tp141
F-0.25499999995855727
s(g111
g8
tp142
F-0.9392462535617424
s((I2
I2
tp143
g8
tp144
F0.0005579153004370655
s(g77
g8
tp145
F-0.9883243842369275
s((I5
I-4
tp146
g5
tp147
F0.0018174184033065749
s(g46
g8
tp148
F0.002250351478417348
s(g66
g11
tp149
F0.0023598758281905808
s(g30
g5
tp150
F0.0010694509216145347
s(g32
g5
tp151
F0.001970775396853242
s(g96
g5
tp152
F0.002149821002083689
s(g127
g11
tp153
F0.001966027660577023
s(g111
g5
tp154
F-0.22441398888672584
s(g27
g5
tp155
F0.0007295862640586871
s(g143
g5
tp156
F-0.21656249980911796
s(g7
g5
tp157
F0.002265844878300193
s(g89
g5
tp158
F0.0016849332780293946
s(g109
g5
tp159
F-0.8743662163876578
s(g115
g8
tp160
F8.366498108691973e-09
s(g46
g11
tp161
F0.001806187357428399
s(g77
g11
tp162
F-0.9882809055185066
s(g60
g8
tp163
F0.00199120831870955
s(g19
g8
tp164
F0.0017411899757263285
s(g36
g11
tp165
F0.002299667859682707
s(g83
g8
tp166
F0.002358245312166127
s(g91
g5
tp167
F-0.40440878660065793
s(g73
g11
tp168
F0.002067642013129225
s(g127
g5
tp169
F0.002291888601345833
s(g125
g5
tp170
F0.0022911844784076017
s((I3
I3
tp171
g11
tp172
F1.8142383818361327e-10
s(g40
g8
tp173
F0.0017658589386076937
s(g10
g8
tp174
F0.0014492461494208255
s((I5
I0
tp175
g8
tp176
F0.0024000511870968344
s(g122
g11
tp177
F-0.7499999999941394
s(g34
g8
tp178
F0.0022303999809220472
s(g122
g8
tp179
F0.002781662936362374
s(g68
g8
tp180
F-0.6874999996841374
s(g115
g11
tp181
F0.0018367779133843976
s(g64
g8
tp182
F0.002424771627908483
s(g133
g5
tp183
F0.0012108451415984787
s(g13
g8
tp184
F-0.5751046986998369
s(g133
g11
tp185
F0.001443691003686771
s(g83
g11
tp186
F0.0022646681431650424
s(g137
g5
tp187
F0.0007322135609696886
s(g36
g8
tp188
F0.0007788097814998432
s(g34
g5
tp189
F0.002292349570505326
s(g44
g5
tp190
F-6.969363361251738e-06
s(g79
g8
tp191
F0.0022797985015297136
s(g103
g5
tp192
F0.0022627944142004767
s(g25
g8
tp193
F7.413342510236068e-10
s(g75
g5
tp194
F0.0013690274900835988
s(g53
g8
tp195
F0.002358913719292806
s(g21
g5
tp196
F0.002281842154629167
s(g23
g8
tp197
F0.0023115635272708203
s(g119
g5
tp198
F0.002165933193111335
s(g146
g8
tp199
F0.002482376075188389
s(g62
g8
tp200
F0.0015079724041265575
s(g60
g5
tp201
F0.0016638417876741099
s(g93
g11
tp202
F-0.04446551497426685
s(g62
g11
tp203
F0.00235073393864698
s(g71
g11
tp204
F0.0004263884416455428
s(g42
g5
tp205
F0.001181011559187363
s(g13
g11
tp206
F-0.00022106724922133956
s(g15
g8
tp207
F0.002316452837936071
s(g109
g8
tp208
F0.0011984713134922608
s(g106
g5
tp209
F-6.662384755221458e-07
s(g42
g11
tp210
F0.002291156179665152
s(g40
g5
tp211
F0.0003500802657010004
s(g106
g8
tp212
F-0.00024287095416189032
s(g143
g11
tp213
F0.002163946067796828
s(g175
g11
tp214
F2.0672853964548064e-09
s(g25
g5
tp215
F0.001615405679383733
s(g135
g8
tp216
F0.0022771326805225162
s(g175
g5
tp217
F2.173783651256895e-09
s(g135
g11
tp218
F0.0022735444640082122
s(g75
g8
tp219
F0.002023251745054533
s(g64
g11
tp220
F0.0023534723721688744
s(g146
g11
tp221
F0.0013080225619437667
s(g93
g8
tp222
F-0.004186651215075008
s(g103
g11
tp223
F0.0020917752141514897
stp224
Rp225
.