ccopy_reg
_reconstructor
p0
(cutil
Counter
p1
c__builtin__
dict
p2
(dp3
((I5
I3
tp4
S'G'
p5
tp6
F2.1941291208367837e-05
s((I4
I-3
tp7
S'L'
p8
tp9
F0.04286473670581247
s((I3
I-2
tp10
g8
tp11
F1.8339127796796302
s((I5
I-4
tp12
S'R'
p13
tp14
F1.7520322944997772e-05
s((I4
I4
tp15
g8
tp16
I0
s((I4
I-1
tp17
g5
tp18
F0.10709165240947909
s((I5
I4
tp19
g13
tp20
F0.00018574081862842023
s((I4
I3
tp21
g8
tp22
F0.01749636159707039
s(g7
g5
tp23
F0.029736803485706544
s(g7
g13
tp24
F0.012508641665061512
s((I4
I2
tp25
g13
tp26
F0.04776126463822574
s((I3
I-1
tp27
g8
tp28
F1.9869563409900886
s(g21
g13
tp29
F0.13628683466687466
s(g19
g8
tp30
F8.818512926587442e-06
s((I3
I1
tp31
g13
tp32
F1.9864936310591335
s((I4
I0
tp33
g5
tp34
F1.1352249505345182
s((I3
I2
tp35
g5
tp36
F0.2770365252909217
s((I4
I-2
tp37
g13
tp38
F0.045772775025869836
s((I5
I-1
tp39
g8
tp40
F0.005711901611236206
s(g17
g8
tp41
F0.5125264965626777
s((I5
I2
tp42
g8
tp43
F0.0010394597273973762
s(g42
g5
tp44
F0.0011524367902330805
s(g15
g5
tp45
F0.01607268780982361
s(g31
g8
tp46
F1.246321334935853
s((I5
I-3
tp47
g5
tp48
F9.014079307810784e-05
s((I4
I-4
tp49
g8
tp50
F0.01768729221785753
s(g10
g13
tp51
F0.4529595002637091
s(g39
g13
tp52
F7.841288317055701e-05
s(g27
g13
tp53
I0
s(g49
g13
tp54
F0.007280699211824477
s((I5
I0
tp55
g5
tp56
F0.0006715862128523181
s((I5
I-2
tp57
g13
tp58
F8.82123230038973e-05
s(g47
g13
tp59
F9.021763751987292e-06
s(g4
g13
tp60
F0.0011276121952061681
s(g4
g8
tp61
F2.2189097768350945e-05
s(g47
g8
tp62
F9.117937657017821e-05
s((I4
I1
tp63
g8
tp64
F0.04136970789067878
s(g10
g5
tp65
I0
s(g63
g5
tp66
F0.06244906299889486
s(g31
g5
tp67
F1.494561369417736
s(g35
g13
tp68
F1.971106317639962
s(g25
g8
tp69
F0.030759261060267096
s(g17
g13
tp70
F0.07603289431702669
s((I5
I1
tp71
g5
tp72
F0.03796941343965745
s(g71
g8
tp73
F0.0014442077691154177
s(g35
g8
tp74
I0
s(g21
g5
tp75
F0.020921304938235716
s(g12
g5
tp76
F9.73773538150794e-06
s(g42
g13
tp77
F0.006615782273855776
s(g37
g5
tp78
F0.18290960309926083
s(g19
g5
tp79
F8.05585911119795e-06
s((I3
I0
tp80
g8
tp81
I0
s(g57
g8
tp82
F9.38364135565183e-05
s(g33
g13
tp83
F0.1825617622071244
s(g80
g13
tp84
F0.9823723333566629
s(g33
g8
tp85
F0.13043524193834743
s(g49
g5
tp86
F2.4372169990699303e-06
s(g39
g5
tp87
F0.0009244509200606625
s(g55
g8
tp88
F0.001412519534569422
s(g71
g13
tp89
F0.24700835502723614
s(g25
g5
tp90
F0.032103486814749074
s(g27
g5
tp91
F0.9717760098464158
s(g55
g13
tp92
F0.00021715161829398235
s(g57
g5
tp93
F0.0001052890175673372
s(g80
g5
tp94
F1.9783624032349771
s(g12
g8
tp95
F1.4991267902627626e-05
s(g15
g13
tp96
F0.02760607910519662
s(g63
g13
tp97
F0.3372095335520757
s(g37
g8
tp98
F0.9948402848471871
stp99
Rp100
.