ccopy_reg
_reconstructor
p0
(cutil
Counter
p1
c__builtin__
dict
p2
(dp3
((I2
I-3
tp4
S'R'
p5
tp6
F-0.410888671875
s((I9
I-2
tp7
g5
tp8
F0.0
s((I1
I3
tp9
S'L'
p10
tp11
F-0.75
s((I2
I1
tp12
g5
tp13
F-0.998046875
s((I1
I4
tp14
g10
tp15
F-0.875
s((I7
I-2
tp16
S'G'
p17
tp18
F0.0
s((I1
I-4
tp19
g17
tp20
F0.0
s((I9
I0
tp21
g17
tp22
F-6.73977596052413e-05
s((I8
I4
tp23
g5
tp24
F0.0
s((I7
I-3
tp25
g5
tp26
F0.0
s((I2
I4
tp27
g10
tp28
F-0.41015625
s((I3
I4
tp29
g5
tp30
F-2.384185791015625e-07
s((I1
I1
tp31
g17
tp32
F0.0
s(g14
g5
tp33
F-0.875
s((I6
I4
tp34
g10
tp35
F0.0
s((I7
I0
tp36
g10
tp37
F0.0
s(g34
g5
tp38
F0.0
s((I3
I-4
tp39
g17
tp40
F0.0
s((I6
I-2
tp41
g5
tp42
F0.0
s((I9
I2
tp43
g17
tp44
F0.0
s((I6
I-4
tp45
g5
tp46
F0.0
s((I8
I0
tp47
g5
tp48
F0.0
s((I6
I-3
tp49
g5
tp50
F0.0
s((I3
I-2
tp51
g5
tp52
F-0.6235427856445312
s((I7
I-1
tp53
g17
tp54
F-0.38330078125
s((I9
I-3
tp55
g10
tp56
F0.0
s((I1
I0
tp57
g5
tp58
F-0.875
s((I5
I-2
tp59
g5
tp60
F0.0
s((I10
I4
tp61
g17
tp62
F0.0
s((I3
I3
tp63
g10
tp64
F0.0
s(g41
g17
tp65
F0.0
s((I2
I0
tp66
g17
tp67
F0.0
s(g23
g17
tp68
F0.0
s((I4
I-3
tp69
g10
tp70
F-3.0517578125e-05
s(g69
g17
tp71
F0.0
s((I3
I2
tp72
g10
tp73
F-0.6318359375
s(g47
g17
tp74
F-0.37345006624218513
s((I2
I3
tp75
g17
tp76
F0.0
s((I10
I-4
tp77
g17
tp78
F0.0
s((I3
I0
tp79
g10
tp80
F-0.96875
s((I9
I1
tp81
g10
tp82
F0.0
s((I10
I0
tp83
g10
tp84
F0.0
s((I8
I3
tp85
g10
tp86
F0.0
s((I7
I3
tp87
g17
tp88
F0.0
s((I4
I-4
tp89
g17
tp90
F0.0
s((I6
I0
tp91
g5
tp92
F-4.443975077099459e-05
s(g29
g10
tp93
F0.0
s(g29
g17
tp94
F0.0
s(g55
g5
tp95
F0.0
s(g25
g17
tp96
F0.0
s((I1
I-1
tp97
g17
tp98
F0.0
s(g47
g10
tp99
F0.0
s((I4
I4
tp100
g5
tp101
F0.0
s((I6
I1
tp102
g17
tp103
F-0.5047802943736315
s((I8
I-1
tp104
g17
tp105
F-0.5
s((I10
I1
tp106
g10
tp107
F0.0
s(g61
g5
tp108
F0.0
s(g106
g5
tp109
F0.0
s(g4
g10
tp110
F-0.9998779296875
s(g87
g5
tp111
F0.0
s(g57
g17
tp112
F0.0
s((I5
I-4
tp113
g5
tp114
F0.0
s((I4
I-2
tp115
g17
tp116
F0.0
s((I6
I-1
tp117
g10
tp118
F-0.053796291796886005
s(g27
g5
tp119
F-0.8623046875
s(g69
g5
tp120
F0.0
s((I10
I-1
tp121
g10
tp122
F0.0
s(g43
g5
tp123
F0.0
s((I7
I2
tp124
g10
tp125
F0.0
s((I5
I3
tp126
g5
tp127
F0.0
s((I2
I-2
tp128
g5
tp129
F-0.99951171875
s((I2
I2
tp130
g5
tp131
F-0.9998779296875
s((I6
I2
tp132
g5
tp133
F-2.7754232006297297e-05
s((I9
I4
tp134
g10
tp135
F0.0
s(g134
g5
tp136
F0.0
s(g57
g10
tp137
F-0.875
s((I5
I2
tp138
g17
tp139
F0.0
s((I10
I3
tp140
g5
tp141
F0.0
s(g89
g10
tp142
F0.0
s((I5
I-1
tp143
g5
tp144
F0.0
s(g31
g10
tp145
F-0.984375
s((I5
I0
tp146
g17
tp147
F-0.9999961853027344
s((I1
I-2
tp148
g10
tp149
F-0.96875
s(g148
g17
tp150
F0.0
s(g75
g10
tp151
F-0.88671875
s((I6
I0
tp152
g10
tp153
F-0.021588465440182805
s((I10
I-2
tp154
g10
tp155
F0.0
s(g143
g10
tp156
F-0.5026138813929656
s((I7
I-4
tp157
g5
tp158
F0.0
s(g12
g17
tp159
F0.0
s((I5
I-3
tp160
g10
tp161
F0.0
s(g106
g17
tp162
F0.0
s((I8
I1
tp163
g17
tp164
F0.0
s((I10
I-3
tp165
g17
tp166
F0.0
s(g97
g5
tp167
F-0.875
s((I7
I4
tp168
g17
tp169
F0.0
s((I8
I-2
tp170
g5
tp171
F0.0
s(g143
g17
tp172
F-0.5984554290771484
s((I10
I2
tp173
g5
tp174
F0.0
s((I4
I-1
tp175
g5
tp176
F-0.600364208615364
s((I8
I-3
tp177
g17
tp178
F0.0
s(g49
g10
tp179
F0.0
s(g7
g10
tp180
F0.0
s(g51
g10
tp181
F-0.9998779296875
s(g85
g5
tp182
F0.0
s((I3
I-3
tp183
g5
tp184
F0.0
s(g81
g17
tp185
F0.0
s(g157
g17
tp186
F0.0
s(g83
g17
tp187
F0.0
s(g12
g10
tp188
F-0.9921875
s((I2
I-4
tp189
g5
tp190
F-0.2965087890625
s((I1
I2
tp191
g17
tp192
F0.0
s(g79
g5
tp193
F-0.99609375
s(g104
g5
tp194
F0.0
s(g16
g5
tp195
F0.0
s(g75
g5
tp196
F-0.998046875
s(g66
g10
tp197
F-0.9375
s(g130
g10
tp198
F-0.9921875
s(g77
g5
tp199
F0.0
s((I5
I1
tp200
g5
tp201
F-0.1783477207819525
s(g102
g5
tp202
F-0.06675242977362156
s(g146
g5
tp203
F-0.5001656701966143
s((I4
I2
tp204
g10
tp205
F0.0
s(g132
g17
tp206
F0.0
s((I8
I2
tp207
g17
tp208
F0.0
s(g53
g5
tp209
F0.0
s(g207
g10
tp210
F0.0
s((I9
I-4
tp211
g17
tp212
F0.0
s(g170
g17
tp213
F0.0
s((I8
I-4
tp214
g10
tp215
F0.0
s(g100
g10
tp216
F0.0
s(g39
g10
tp217
F-0.0078277587890625
s((I4
I3
tp218
g10
tp219
F0.0
s((I7
I1
tp220
g5
tp221
F-0.0005325264180861364
s(g220
g17
tp222
F-0.59521484375
s((I4
I2
tp223
g5
tp224
F-0.9677042365074158
s(g168
g5
tp225
F0.0
s(g218
g5
tp226
F-4.76837158203125e-07
s((I5
I4
tp227
g10
tp228
F0.0
s(g23
g10
tp229
F0.0
s(g183
g10
tp230
F-0.9345073699951172
s((I3
I1
tp231
g5
tp232
F-0.999755859375
s((I9
I3
tp233
g10
tp234
F0.0
s((I7
I2
tp235
g5
tp236
F0.0
s((I4
I0
tp237
g17
tp238
F-0.9999999999990905
s(g72
g17
tp239
F0.0
s((I7
I0
tp240
g5
tp241
F0.0
s(g115
g5
tp242
F0.0
s(g189
g17
tp243
F0.0
s((I1
I-3
tp244
g17
tp245
F0.0
s(g189
g10
tp246
F-0.998046875
s(g81
g5
tp247
F0.0
s(g244
g10
tp248
F-0.9375
s(g138
g10
tp249
F0.0
s(g214
g17
tp250
F0.0
s(g85
g17
tp251
F0.0
s(g31
g5
tp252
F-0.5
s(g102
g10
tp253
F0.0
s(g163
g5
tp254
F0.0
s(g89
g5
tp255
F0.0
s((I2
I-1
tp256
g10
tp257
F-0.96875
s(g51
g17
tp258
F0.0
s((I9
I-1
tp259
g10
tp260
F0.0
s(g16
g10
tp261
F0.0
s(g21
g5
tp262
F0.0
s((I7
I0
tp263
g17
tp264
F-0.9999999999854481
s(g19
g10
tp265
F-0.99609375
s(g160
g5
tp266
F0.0
s(g244
g5
tp267
F-0.75
s(g19
g5
tp268
F-0.75
s(g154
g5
tp269
F0.0
s(g132
g10
tp270
F0.0
s((I4
I1
tp271
g10
tp272
F-0.8165031927637756
s(g168
g10
tp273
F0.0
s(g256
g5
tp274
F-0.984375
s(g235
g17
tp275
F0.0
s(g4
g17
tp276
F0.0
s(g49
g17
tp277
F0.0
s((I3
I-1
tp278
g5
tp279
F-0.999755859375
s(g237
g5
tp280
F-0.9999999999997726
s(g117
g5
tp281
F0.0
s(g271
g17
tp282
F-0.0337219248190338
s(g175
g17
tp283
F-0.03128100931644451
s(g227
g17
tp284
F0.0
s(g128
g17
tp285
F0.0
s(g191
g10
tp286
F-0.75
s(g41
g10
tp287
F-0.006556848675430958
s(g134
g17
tp288
F0.0
s(g43
g10
tp289
F0.0
s(g165
g10
tp290
F0.0
s((I6
I3
tp291
g10
tp292
F0.0
s(g148
g5
tp293
F-0.9375
s(g291
g17
tp294
F0.0
s((I5
I-2
tp295
g10
tp296
F-0.0252831044108823
s(g7
g17
tp297
F0.0
s(g63
g5
tp298
F-0.6116943359375
s(g59
g17
tp299
F0.0
s(g259
g17
tp300
F0.0
s(g77
g10
tp301
F0.0
s(g79
g17
tp302
F0.0
s(g140
g17
tp303
F0.0
s(g27
g17
tp304
F0.0
s(g97
g10
tp305
F-0.875
s((I5
I3
tp306
g17
tp307
F0.0
s(g87
g10
tp308
F0.0
s(g83
g5
tp309
F0.0
s(g53
g10
tp310
F-0.00262980728266195
s(g34
g17
tp311
F0.0
s(g9
g5
tp312
F-0.984375
s(g177
g5
tp313
F0.0
s(g130
g17
tp314
F0.0
s(g233
g5
tp315
F0.0
s(g173
g17
tp316
F0.0
s(g227
g5
tp317
F0.0
s(g278
g10
tp318
F-0.9999847412109375
s(g104
g10
tp319
F0.0
s(g55
g17
tp320
F0.0
s(g191
g5
tp321
F-0.998046875
s(g211
g10
tp322
F0.0
s(g91
g17
tp323
F-0.9999923706054688
s(g115
g10
tp324
F-0.9999997378108674
s(g259
g5
tp325
F0.0
s(g170
g10
tp326
F0.0
s(g100
g17
tp327
F0.0
s(g231
g10
tp328
F-0.9990234375
s(g160
g17
tp329
F0.0
s(g66
g5
tp330
F-0.998046875
s(g163
g10
tp331
F0.0
s(g63
g17
tp332
F0.0
s(g117
g17
tp333
F-0.5086385607719421
s(g278
g17
tp334
F0.0
s(g9
g17
tp335
F0.0
s((I3
I-3
tp336
g17
tp337
F0.0
s(g233
g17
tp338
F0.0
s(g121
g5
tp339
F0.0
s(g177
g10
tp340
F0.0
s(g214
g5
tp341
F0.0
s(g220
g10
tp342
F0.0
s(g211
g5
tp343
F0.0
s(g204
g17
tp344
F0.0
s(g61
g10
tp345
F0.0
s(g207
g5
tp346
F0.0
s(g21
g10
tp347
F0.0
s(g126
g10
tp348
F0.0
s(g157
g10
tp349
F0.0
s(g231
g17
tp350
F0.0
s(g72
g5
tp351
F-0.99993896484375
s(g200
g17
tp352
F-0.14059066772460938
s(g25
g10
tp353
F0.0
s(g200
g10
tp354
F0.0
s(g173
g10
tp355
F0.0
s(g39
g5
tp356
F0.0
s(g218
g17
tp357
F0.0
s(g291
g5
tp358
F0.0
s(g113
g17
tp359
F0.0
s(g45
g17
tp360
F0.0
s(g138
g5
tp361
F-0.03329630738224654
s(g128
g10
tp362
F-0.984375
s(g45
g10
tp363
F0.0
s(g154
g17
tp364
F0.0
s((I1
I4
tp365
g17
tp366
F0.0
s(g237
g10
tp367
F-0.9980468749999982
s(g146
g10
tp368
F-0.03895812464683931
s(g256
g17
tp369
F0.0
s(g121
g17
tp370
F0.0
s(g140
g10
tp371
F0.0
s(g113
g10
tp372
F0.0
s(g165
g5
tp373
F0.0
s(g271
g5
tp374
F-0.9999923706054688
s(g175
g10
tp375
F-0.9999980926513672
stp376
Rp377
.