ccopy_reg
_reconstructor
p0
(cutil
Counter
p1
c__builtin__
dict
p2
(dp3
((I2
I-3
tp4
S'R'
p5
tp6
F0.0
s((I9
I-1
tp7
g5
tp8
F0.0
s((I6
I2
tp9
S'G'
p10
tp11
F0.0
s((I1
I3
tp12
S'L'
p13
tp14
F-0.859375
s((I2
I1
tp15
g5
tp16
F-1.6756375986573322
s((I7
I-2
tp17
g5
tp18
F0.0
s((I8
I2
tp19
g13
tp20
F0.0
s((I1
I4
tp21
g13
tp22
F-0.96875
s((I9
I-4
tp23
g10
tp24
F0.0
s((I7
I-1
tp25
g10
tp26
F0.0
s((I1
I-4
tp27
g10
tp28
F0.0
s((I8
I-1
tp29
g10
tp30
F0.0
s((I8
I-4
tp31
g13
tp32
F0.0
s((I4
I4
tp33
g13
tp34
F0.0
s((I3
I-4
tp35
g13
tp36
F0.0
s((I9
I0
tp37
g10
tp38
F0.0
s((I4
I3
tp39
g13
tp40
F0.0
s((I5
I1
tp41
g13
tp42
F0.0
s((I8
I4
tp43
g5
tp44
F0.0
s((I7
I1
tp45
g10
tp46
F0.0
s((I4
I2
tp47
g5
tp48
F0.0
s((I7
I-3
tp49
g5
tp50
F0.0
s(g39
g5
tp51
F0.0
s(g19
g10
tp52
F0.0
s((I5
I4
tp53
g13
tp54
F0.0
s(g43
g13
tp55
F0.0
s((I2
I4
tp56
g13
tp57
F0.0
s((I3
I-3
tp58
g13
tp59
F0.0
s((I3
I1
tp60
g5
tp61
F-0.0673356774683181
s((I3
I4
tp62
g5
tp63
F0.0
s((I9
I3
tp64
g13
tp65
F0.0
s((I2
I3
tp66
g13
tp67
F0.0
s((I7
I2
tp68
g5
tp69
F0.0
s((I4
I0
tp70
g10
tp71
F-1.054356079787124
s((I3
I2
tp72
g10
tp73
F0.0
s((I7
I0
tp74
g5
tp75
F0.0
s((I4
I-1
tp76
g5
tp77
F0.0
s(g21
g5
tp78
F-0.9375
s((I6
I4
tp79
g13
tp80
F0.0
s((I1
I-3
tp81
g10
tp82
F0.0
s((I2
I-4
tp83
g13
tp84
F0.0
s((I9
I1
tp85
g5
tp86
F0.0
s(g74
g13
tp87
F0.0
s(g81
g13
tp88
F-0.96875
s(g79
g5
tp89
F0.0
s(g35
g10
tp90
F0.0
s((I6
I-1
tp91
g5
tp92
F0.0
s((I5
I2
tp93
g13
tp94
F0.0
s((I9
I2
tp95
g10
tp96
F0.0
s(g31
g10
tp97
F0.0
s((I6
I-4
tp98
g5
tp99
F0.0
s((I8
I0
tp100
g5
tp101
F0.0
s((I6
I-3
tp102
g5
tp103
F0.0
s((I8
I3
tp104
g10
tp105
F0.0
s((I1
I1
tp106
g5
tp107
F-0.75
s((I6
I1
tp108
g13
tp109
F0.0
s((I3
I3
tp110
g10
tp111
F0.0
s((I8
I1
tp112
g5
tp113
F0.0
s(g17
g10
tp114
F0.0
s((I4
I-4
tp115
g5
tp116
F0.0
s((I9
I-3
tp117
g13
tp118
F0.0
s((I2
I-1
tp119
g13
tp120
F-1.645379168900153
s((I1
I0
tp121
g5
tp122
F-0.9921875
s((I5
I-2
tp123
g5
tp124
F0.0
s((I3
I-1
tp125
g10
tp126
F-0.921875
s(g7
g13
tp127
F0.0
s(g25
g13
tp128
F0.0
s(g37
g5
tp129
F0.0
s(g74
g10
tp130
F0.0
s(g27
g13
tp131
F-0.984375
s((I5
I-3
tp132
g5
tp133
F0.0
s(g83
g10
tp134
F0.0
s(g81
g5
tp135
F-0.75
s(g110
g13
tp136
F0.0
s(g27
g5
tp137
F-0.875
s(g91
g10
tp138
F0.0
s(g9
g13
tp139
F0.0
s((I4
I1
tp140
g13
tp141
F0.0
s((I2
I0
tp142
g10
tp143
F-1.0
s((I7
I4
tp144
g13
tp145
F0.0
s(g140
g10
tp146
F-0.005275382115566174
s(g68
g10
tp147
F0.0
s(g43
g10
tp148
F0.0
s(g4
g10
tp149
F0.0
s((I4
I-3
tp150
g13
tp151
F0.0
s(g150
g10
tp152
F0.0
s(g72
g13
tp153
F0.0
s((I7
I-4
tp154
g10
tp155
F0.0
s((I6
I-2
tp156
g5
tp157
F0.0
s(g100
g10
tp158
F0.0
s(g106
g13
tp159
F-0.9375
s((I4
I-2
tp160
g10
tp161
F0.0
s(g53
g10
tp162
F0.0
s((I3
I0
tp163
g13
tp164
F-0.226186934409336
s(g123
g13
tp165
F0.0
s((I2
I-2
tp166
g10
tp167
F0.0
s((I1
I2
tp168
g13
tp169
F-0.75
s(g85
g13
tp170
F0.0
s((I1
I-2
tp171
g13
tp172
F-0.875
s(g104
g13
tp173
F0.0
s(g91
g13
tp174
F0.0
s((I7
I3
tp175
g10
tp176
F0.0
s(g115
g10
tp177
F0.0
s((I9
I4
tp178
g10
tp179
F0.0
s(g62
g13
tp180
F0.0
s(g95
g13
tp181
F0.0
s(g83
g5
tp182
F0.0
s((I6
I3
tp183
g13
tp184
F0.0
s(g62
g10
tp185
F0.0
s((I1
I-1
tp186
g5
tp187
F-0.9375
s(g183
g10
tp188
F0.0
s(g117
g5
tp189
F0.0
s((I5
I-1
tp190
g13
tp191
F0.0
s(g49
g10
tp192
F0.0
s(g110
g5
tp193
F0.0
s(g190
g10
tp194
F0.0
s(g7
g10
tp195
F0.0
s(g163
g10
tp196
F-1.1576708213281635
s(g33
g5
tp197
F0.0
s(g56
g10
tp198
F0.0
s((I5
I3
tp199
g10
tp200
F0.0
s(g108
g10
tp201
F0.0
s((I8
I-2
tp202
g10
tp203
F0.0
s(g175
g13
tp204
F0.0
s((I6
I0
tp205
g5
tp206
F0.0
s(g17
g13
tp207
F0.0
s(g4
g13
tp208
F-0.523681640625
s(g175
g5
tp209
F0.0
s(g79
g10
tp210
F0.0
s(g12
g5
tp211
F-0.875
s((I8
I-3
tp212
g5
tp213
F0.0
s(g186
g10
tp214
F-0.5078144204489945
s((I2
I2
tp215
g10
tp216
F0.0
s(g121
g10
tp217
F-0.8982114791870117
s((I5
I-4
tp218
g5
tp219
F0.0
s(g64
g5
tp220
F0.0
s(g76
g10
tp221
F-0.026959462836384774
s(g156
g13
tp222
F0.0
s(g53
g5
tp223
F0.0
s(g56
g5
tp224
F0.0
s(g150
g5
tp225
F0.0
s(g95
g5
tp226
F0.0
s(g125
g13
tp227
F-0.12155960994899034
s(g68
g13
tp228
F0.0
s(g202
g13
tp229
F0.0
s(g108
g5
tp230
F0.0
s(g119
g5
tp231
F-0.9478836060209768
s(g215
g5
tp232
F-0.5402367512370225
s(g117
g10
tp233
F0.0
s(g9
g5
tp234
F0.0
s(g178
g13
tp235
F0.0
s(g140
g5
tp236
F-0.0015812923962137866
s(g168
g5
tp237
F-0.875
s(g23
g13
tp238
F0.0
s(g178
g5
tp239
F0.0
s(g76
g13
tp240
F-0.009431232771779607
s((I9
I-2
tp241
g5
tp242
F0.0
s(g29
g13
tp243
F0.0
s(g121
g13
tp244
F-1.0484379559755326
s(g19
g5
tp245
F0.0
s(g93
g10
tp246
F0.0
s(g33
g10
tp247
F0.0
s(g60
g13
tp248
F0.0
s(g132
g10
tp249
F0.0
s((I3
I-2
tp250
g5
tp251
F0.0
s(g142
g5
tp252
F-1.3538706794642534
s(g112
g13
tp253
F0.0
s(g115
g13
tp254
F0.0
s(g125
g5
tp255
F0.0
s(g190
g5
tp256
F0.0
s(g156
g10
tp257
F0.0
s(g66
g10
tp258
F0.0
s(g12
g10
tp259
F0.0
s((I5
I0
tp260
g10
tp261
F-0.08564289834423107
s(g186
g13
tp262
F-0.934765625
s(g144
g5
tp263
F0.0
s(g171
g10
tp264
F0.0
s(g64
g10
tp265
F0.0
s(g100
g13
tp266
F0.0
s(g212
g13
tp267
F0.0
s(g31
g5
tp268
F0.0
s(g41
g5
tp269
F0.0
s(g29
g5
tp270
F0.0
s(g205
g13
tp271
F0.0
s(g102
g10
tp272
F0.0
s(g23
g5
tp273
F0.0
s(g199
g5
tp274
F0.0
s(g154
g5
tp275
F0.0
s(g15
g10
tp276
F-0.99365234375
s(g58
g10
tp277
F0.0
s(g37
g13
tp278
F0.0
s(g199
g13
tp279
F0.0
s(g154
g13
tp280
F0.0
s(g132
g13
tp281
F0.0
s(g112
g10
tp282
F0.0
s(g250
g10
tp283
F0.0
s(g60
g10
tp284
F-0.081787109375
s(g171
g5
tp285
F-0.75
s(g58
g5
tp286
F0.0
s(g202
g5
tp287
F0.0
s(g72
g5
tp288
F-0.0009423574764188175
s(g49
g13
tp289
F0.0
s(g123
g10
tp290
F0.0
s(g106
g10
tp291
F-0.5078125633299351
s(g160
g5
tp292
F0.0
s(g41
g10
tp293
F0.0
s(g166
g5
tp294
F-0.000244140625
s(g45
g5
tp295
F0.0
s(g212
g10
tp296
F0.0
s(g35
g5
tp297
F0.0
s(g39
g10
tp298
F0.0
s(g183
g5
tp299
F0.0
s(g218
g10
tp300
F0.0
s(g98
g10
tp301
F0.0
s(g93
g5
tp302
F0.0
s(g166
g13
tp303
F-0.5508052461980039
s(g241
g13
tp304
F0.0
s(g98
g13
tp305
F0.0
s(g250
g13
tp306
F-0.0007488546011513038
s(g104
g5
tp307
F0.0
s(g144
g10
tp308
F0.0
s(g85
g10
tp309
F0.0
s(g70
g5
tp310
F0.0
s(g15
g13
tp311
F-0.7031909339934899
s(g21
g10
tp312
F0.0
s(g168
g10
tp313
F0.0
s(g163
g5
tp314
F-0.14238328272642017
s(g70
g13
tp315
F0.0
s(g25
g5
tp316
F0.0
s(g66
g5
tp317
F-0.0078277587890625
s(g142
g13
tp318
F-1.1623394632042339
s(g215
g13
tp319
F-0.0009765625
s(g205
g10
tp320
F0.0
s(g260
g13
tp321
F0.0
s(g45
g13
tp322
F0.0
s(g47
g10
tp323
F0.0
s(g260
g5
tp324
F0.0
s(g47
g13
tp325
F0.0
s(g241
g10
tp326
F0.0
s(g102
g13
tp327
F0.0
s(g218
g13
tp328
F0.0
s(g119
g10
tp329
F-0.9335594177246094
s(g160
g13
tp330
F0.0
stp331
Rp332
.