ccopy_reg
_reconstructor
p0
(cutil
Counter
p1
c__builtin__
dict
p2
(dp3
((I2
I-3
tp4
S'R'
p5
tp6
F-1.0015014678239824
s((I9
I-1
tp7
g5
tp8
F0.0
s((I1
I3
tp9
S'L'
p10
tp11
F-1.0125244140624998
s((I2
I1
tp12
g5
tp13
F-1.17195
s((I1
I4
tp14
S'L'
p15
tp16
F-1.0046875029802322
s((I7
I-2
tp17
S'G'
p18
tp19
F0.0
s((I1
I-4
tp20
g18
tp21
F-0.9990234375
s((I9
I0
tp22
g18
tp23
F0.0
s((I8
I4
tp24
g5
tp25
F0.0
s((I7
I-3
tp26
g5
tp27
F0.0
s((I2
I4
tp28
g10
tp29
F-1.006201171875
s((I3
I4
tp30
g5
tp31
F-0.6063812255861558
s((I1
I1
tp32
g18
tp33
F-0.9968819625908509
s(g14
S'R'
p34
tp35
F-1.0258563232421873
s((I6
I4
tp36
g10
tp37
F0.0
s((I7
I0
tp38
g10
tp39
F-3.568397712350924e-23
s(g36
g5
tp40
F0.0
s((I3
I-4
tp41
g18
tp42
F0.0
s((I6
I-2
tp43
g5
tp44
F0.0
s((I9
I2
tp45
g18
tp46
F0.0
s((I6
I-4
tp47
g5
tp48
F0.0
s((I8
I0
tp49
g5
tp50
F0.0
s((I6
I-3
tp51
g5
tp52
F0.0
s((I3
I-2
tp53
g5
tp54
F-1.099726890604313
s((I7
I-1
tp55
g18
tp56
F-2.3374377020322057e-08
s((I9
I-3
tp57
g10
tp58
F0.0
s((I1
I0
tp59
g5
tp60
F-1.138625
s((I5
I-1
tp61
g5
tp62
F-1.7520155059584843e-12
s((I10
I4
tp63
g18
tp64
F0.0
s(g43
g18
tp65
F0.0
s((I2
I0
tp66
g18
tp67
F-1.1930810546875001
s(g24
g18
tp68
F0.0
s((I4
I-3
tp69
g10
tp70
F-4.29711424553744e-06
s(g69
g18
tp71
F0.0
s((I3
I2
tp72
g10
tp73
F-1.1519820062921406
s(g49
g18
tp74
F-1.3730081858507028e-33
s(g32
g10
tp75
F-1.151796875
s((I10
I-4
tp76
g18
tp77
F0.0
s((I3
I0
tp78
g10
tp79
F-1.2189412811404967
s((I9
I1
tp80
g10
tp81
F0.0
s((I10
I0
tp82
g10
tp83
F0.0
s((I8
I3
tp84
g10
tp85
F0.0
s((I7
I3
tp86
g18
tp87
F0.0
s((I4
I-4
tp88
g18
tp89
F0.0
s((I6
I0
tp90
g5
tp91
F-0.0017448612920770521
s(g30
g10
tp92
F-0.1737213134765625
s(g30
g18
tp93
F0.0
s(g57
g5
tp94
F0.0
s(g26
g18
tp95
F0.0
s((I1
I-1
tp96
g18
tp97
F-0.9984375002095476
s((I4
I4
tp98
g5
tp99
F0.0
s((I4
I2
tp100
g5
tp101
F-0.3791889277615895
s((I8
I-2
tp102
g18
tp103
F0.0
s((I10
I1
tp104
g10
tp105
F0.0
s(g63
g5
tp106
F0.0
s(g104
g5
tp107
F0.0
s((I3
I3
tp108
g18
tp109
F-0.0001220703126364242
s(g4
g10
tp110
F-1.1763762021636648
s(g86
g5
tp111
F-2.9748015409633664e-33
s(g59
g18
tp112
F-0.9984378814726369
s((I5
I-4
tp113
g5
tp114
F0.0
s((I4
I-1
tp115
g18
tp116
F-1.1906959524154663
s((I6
I-1
tp117
g10
tp118
F-1.98591869526899e-06
s(g28
g5
tp119
F-1.0094707496464252
s(g69
g5
tp120
F0.0
s(g51
g18
tp121
F0.0
s(g45
g5
tp122
F0.0
s((I1
I-2
tp123
g5
tp124
F-1.0148046874999999
s((I5
I3
tp125
g5
tp126
F-4.006928242830621e-15
s((I2
I-1
tp127
g5
tp128
F-1.124281680643872
s((I2
I2
tp129
g5
tp130
F-1.1914058114588262
s((I6
I2
tp131
g5
tp132
F-2.348501943247226e-15
s((I9
I4
tp133
g10
tp134
F0.0
s(g133
g5
tp135
F0.0
s(g59
g10
tp136
F-1.1462245465815069
s((I5
I2
tp137
g18
tp138
F-3.240503522462433e-05
s((I10
I3
tp139
g5
tp140
F0.0
s(g88
g10
tp141
F0.0
s((I5
I-2
tp142
g5
tp143
F0.0
s((I2
I3
tp144
g18
tp145
F-0.7620399813131371
s((I5
I0
tp146
g18
tp147
F-1.2327559811127933
s(g96
g10
tp148
F-1.058
s(g123
g18
tp149
F-0.9999470740571268
s(g144
g10
tp150
F-1.006188988685608
s(g90
g10
tp151
F-4.4501570807757386e-12
s((I10
I-1
tp152
g10
tp153
F0.0
s(g61
g10
tp154
F-0.02776330441607964
s((I4
I0
tp155
g18
tp156
F-1.10481416015625
s(g12
g18
tp157
F-1.0538933868461755
s((I5
I-3
tp158
g10
tp159
F-2.4636567707778114e-15
s(g104
g18
tp160
F0.0
s((I8
I1
tp161
g18
tp162
F-2.1739048634070346e-33
s((I10
I-3
tp163
g18
tp164
F0.0
s((I7
I4
tp165
g18
tp166
F0.0
s((I8
I-1
tp167
g5
tp168
F0.0
s(g142
g18
tp169
F-2.3327427085273484e-06
s((I10
I2
tp170
g5
tp171
F0.0
s(g115
g5
tp172
F-0.14707019657996181
s((I8
I-3
tp173
g18
tp174
F0.0
s(g51
g10
tp175
F0.0
s((I9
I-2
tp176
g10
tp177
F0.0
s((I3
I-1
tp178
g10
tp179
F-1.2234599841496347
s(g84
g5
tp180
F0.0
s((I3
I-3
tp181
g5
tp182
F-0.8402651548386537
s(g80
g18
tp183
F0.0
s(g155
g5
tp184
F-0.8801353547840636
s(g82
g18
tp185
F0.0
s(g12
g10
tp186
F-1.188833282470703
s((I2
I-4
tp187
g5
tp188
F-0.9910163879394531
s((I1
I2
tp189
g18
tp190
F-0.9998657733260188
s(g78
g5
tp191
F-1.212244644576963
s(g102
g5
tp192
F0.0
s(g55
g5
tp193
F0.0
s(g144
g5
tp194
F-1.1201918640136719
s(g66
g10
tp195
F-1.197401086132042
s(g129
g10
tp196
F-1.100646197795868
s(g76
g5
tp197
F0.0
s((I5
I1
tp198
g5
tp199
F-0.007404185137125659
s((I6
I1
tp200
g5
tp201
F-0.0023015578917572215
s(g146
g5
tp202
F-0.009555850915870781
s(g100
g10
tp203
F-1.7800617324920762e-09
s(g131
g18
tp204
F-2.137028339203558e-13
s((I8
I2
tp205
g18
tp206
F0.0
s(g17
g5
tp207
F0.0
s(g205
g10
tp208
F0.0
s((I9
I-4
tp209
g18
tp210
F0.0
s(g167
g18
tp211
F0.0
s((I8
I-4
tp212
g10
tp213
F0.0
s(g98
g10
tp214
F0.0
s(g41
g10
tp215
F-0.2712406188249588
s((I4
I3
tp216
g10
tp217
F0.0
s((I7
I1
tp218
g5
tp219
F-1.3126911943512747e-11
s(g218
g18
tp220
F-1.515442517784742e-11
s(g200
g18
tp221
F-0.006284742071167479
s(g165
g5
tp222
F0.0
s(g216
g5
tp223
F-8.753299213647248e-10
s((I5
I4
tp224
g10
tp225
F0.0
s(g24
g10
tp226
F0.0
s(g181
g10
tp227
F-1.036770901048826
s((I3
I1
tp228
g5
tp229
F-1.2303383093967288
s((I9
I3
tp230
g10
tp231
F0.0
s((I7
I2
tp232
g5
tp233
F-4.654019721279686e-25
s((I7
I-4
tp234
g5
tp235
F0.0
s(g72
g18
tp236
F-0.8439479022530673
s(g38
g5
tp237
F0.0
s((I4
I-2
tp238
g5
tp239
F-1.3381285860367302e-25
s(g187
g18
tp240
F-3.637978807091713e-12
s((I1
I-3
tp241
g18
tp242
F-0.998046875
s(g187
g10
tp243
F-0.9970718383789062
s(g80
g5
tp244
F0.0
s(g152
g5
tp245
F0.0
s(g241
g10
tp246
F-1.088
s(g137
g10
tp247
F-8.976419449524309e-42
s(g212
g18
tp248
F0.0
s(g232
g10
tp249
F0.0
s(g84
g18
tp250
F0.0
s(g117
g18
tp251
F-0.0021391810188203316
s(g32
g5
tp252
F-1.0881251525878906
s(g200
g10
tp253
F-1.3595930626848406e-30
s(g161
g5
tp254
F0.0
s(g88
g5
tp255
F0.0
s(g127
g10
tp256
F-1.1616696838378906
s(g53
g18
tp257
F-0.9366305185953779
s(g7
g10
tp258
F0.0
s(g17
g10
tp259
F0.0
s(g22
g5
tp260
F0.0
s(g38
g18
tp261
F-0.00020357382778443634
s(g20
g10
tp262
F-1.0699999999999998
s(g158
g5
tp263
F0.0
s(g241
g5
tp264
F-1.0980859375
s(g20
g5
tp265
F-1.0937271118164062
s((I10
I-2
tp266
g5
tp267
F0.0
s((I6
I2
tp268
g10
tp269
F-1.0709218842697811e-38
s((I4
I1
tp270
g10
tp271
F-0.5733029663669085
s(g165
g10
tp272
F0.0
s((I2
I-2
tp273
g5
tp274
F-1.0698486328125
s(g232
g18
tp275
F-7.254507647015266e-27
s(g4
g18
tp276
F-0.4046063720888924
s(g234
g18
tp277
F0.0
s(g117
g5
tp278
F0.0
s(g270
g18
tp279
F-1.1748994475376793
s(g238
g18
tp280
F-0.261349952618964
s(g224
g18
tp281
F0.0
s(g266
g10
tp282
F0.0
s(g273
g18
tp283
F-1.0830904594332922
s(g189
g10
tp284
F-1.0896875000000001
s(g43
g10
tp285
F-1.0808885429437113e-10
s(g133
g18
tp286
F0.0
s(g224
g5
tp287
F0.0
s(g163
g10
tp288
F0.0
s((I6
I3
tp289
g10
tp290
F0.0
s(g96
g5
tp291
F-1.0811612548828125
s(g289
g18
tp292
F0.0
s(g142
g10
tp293
F-2.8245166088481607e-06
s(g7
g18
tp294
F0.0
s(g108
g5
tp295
F-0.9323481062193594
s(g61
g18
tp296
F-0.3416895171407164
s(g176
g18
tp297
F0.0
s(g76
g10
tp298
F0.0
s(g78
g18
tp299
F-1.1996651275827666
s(g139
g18
tp300
F0.0
s(g28
g18
tp301
F-7.275957614183426e-12
s(g123
g10
tp302
F-1.09088
s(g125
g18
tp303
F0.0
s(g86
g10
tp304
F0.0
s(g82
g5
tp305
F0.0
s(g55
g10
tp306
F-2.6059109763620054e-16
s(g36
g18
tp307
F0.0
s(g9
g5
tp308
F-0.9984375
s(g173
g5
tp309
F0.0
s(g129
g18
tp310
F-1.0034434938430787
s(g230
g5
tp311
F0.0
s(g170
g18
tp312
F0.0
s(g45
g10
tp313
F0.0
s(g53
g10
tp314
F-1.13121896721904
s(g167
g10
tp315
F-4.7675959024530893e-35
s(g57
g18
tp316
F0.0
s(g189
g5
tp317
F-1.0906250000000002
s(g209
g10
tp318
F0.0
s(g90
g18
tp319
F-0.1483197492295378
s(g238
g10
tp320
F-0.21725304571771906
s(g176
g5
tp321
F0.0
s(g102
g10
tp322
F0.0
s(g98
g18
tp323
F0.0
s(g228
g10
tp324
F-1.1457041664276977
s(g158
g18
tp325
F0.0
s(g66
g5
tp326
F-1.1912660278320313
s(g161
g10
tp327
F0.0
s((I3
I-1
tp328
g5
tp329
F-1.1786128791137205
s(g108
g10
tp330
F-0.9536666870117188
s(g328
g18
tp331
F-1.199074249267578
s(g9
g18
tp332
F-0.9990234375
s(g181
g18
tp333
F-1.0926725019580474e-19
s(g230
g18
tp334
F0.0
s(g49
g10
tp335
F-1.1988450210082367e-32
s(g173
g10
tp336
F0.0
s(g212
g5
tp337
F0.0
s(g218
g10
tp338
F-4.767595902453089e-34
s(g209
g5
tp339
F0.0
s(g100
g18
tp340
F-0.1957162560600763
s(g63
g10
tp341
F0.0
s(g205
g5
tp342
F-9.916005136544556e-34
s(g22
g10
tp343
F0.0
s(g125
g10
tp344
F0.0
s(g234
g10
tp345
F0.0
s(g228
g18
tp346
F-1.2067791633605958
s(g72
g5
tp347
F-1.207448804180412
s(g198
g18
tp348
F-0.5506037509477384
s(g26
g10
tp349
F0.0
s(g198
g10
tp350
F-4.4501543479351004e-11
s(g170
g10
tp351
F0.0
s(g41
g5
tp352
F-0.9134567081928253
s(g216
g18
tp353
F0.0
s(g289
g5
tp354
F-1.113980543714643e-31
s(g113
g18
tp355
F0.0
s(g47
g18
tp356
F0.0
s(g137
g5
tp357
F-0.0012573158801647297
s(g273
g10
tp358
F-1.13793701171875
s(g47
g10
tp359
F0.0
s(g266
g18
tp360
F0.0
s(g14
S'G'
p361
tp362
F-0.9999847412109375
s(g155
g10
tp363
F-1.1248585192893537
s(g146
g10
tp364
F-0.0884928611255752
s(g127
g18
tp365
F-1.1428546121641994
s(g152
g18
tp366
F0.0
s(g139
g10
tp367
F0.0
s(g113
g10
tp368
F0.0
s(g163
g5
tp369
F0.0
s(g270
g5
tp370
F-1.2308773656606675
s(g115
g10
tp371
F-0.9816887098465572
stp372
Rp373
.