ccopy_reg
_reconstructor
p0
(cutil
Counter
p1
c__builtin__
dict
p2
(dp3
((I2
I-3
tp4
S'R'
p5
tp6
I0
s((I9
I-1
tp7
S'R'
p8
tp9
F0.001023286687595341
s((I1
I3
tp10
S'L'
p11
tp12
F0.5
s((I2
I1
tp13
g8
tp14
F1.2165237439824923
s((I1
I4
tp15
g11
tp16
I0
s((I7
I-1
tp17
S'G'
p18
tp19
F0.0031466033391419597
s((I1
I-4
tp20
S'G'
p21
tp22
I0
s((I9
I0
tp23
g18
tp24
F0.007430001043451512
s((I8
I4
tp25
g8
tp26
F0.0003674288549195004
s((I7
I-3
tp27
g8
tp28
F0.0024567830658423274
s((I2
I4
tp29
S'L'
p30
tp31
I0
s((I3
I4
tp32
g8
tp33
F0.00032609385638025605
s((I2
I3
tp34
S'L'
p35
tp36
F2.2078008527104116e-06
s(g15
g5
tp37
I0
s((I6
I4
tp38
g35
tp39
F0.0021885440319284652
s((I7
I0
tp40
g35
tp41
F0.008012398442565585
s(g38
g8
tp42
F0.0007314956373500854
s((I3
I-4
tp43
g21
tp44
F0.004462444597580639
s((I6
I-1
tp45
g8
tp46
F0.0028052373330416016
s((I9
I2
tp47
g18
tp48
F0.00041088234157375864
s((I6
I-4
tp49
g8
tp50
F0.009265099131857689
s((I8
I0
tp51
g8
tp52
F0.0016324077463675496
s((I6
I-3
tp53
g8
tp54
F0.0002870058231021529
s((I3
I-2
tp55
g8
tp56
F0.002396423454141637
s((I7
I-2
tp57
g18
tp58
F0.5029415819223191
s((I9
I-3
tp59
g35
tp60
F0.0002612017956658148
s((I1
I0
tp61
g5
tp62
I0
s((I5
I-2
tp63
g8
tp64
F0.0
s((I10
I4
tp65
g18
tp66
F1.0689135036456418e-05
s((I3
I3
tp67
g35
tp68
F0.00020247583264688688
s(g45
g18
tp69
F0.014646262073329046
s((I2
I0
tp70
g18
tp71
F0.9999999998835847
s(g25
g18
tp72
F0.0009471644616877425
s((I4
I-3
tp73
g35
tp74
F0.004271975283847443
s(g73
g18
tp75
F0.0006943456610268195
s((I3
I2
tp76
g35
tp77
F0.028433635214361472
s(g51
g18
tp78
F0.0378296534112892
s(g34
g18
tp79
F0.0002511722060630717
s((I10
I-4
tp80
g18
tp81
F3.745651213474035e-07
s((I3
I0
tp82
g35
tp83
F0.19551248516738284
s((I9
I1
tp84
g35
tp85
F0.0007205658239346062
s((I10
I0
tp86
g35
tp87
F3.151226537583084e-05
s((I8
I3
tp88
g35
tp89
F0.0003084928943905004
s((I7
I3
tp90
g18
tp91
F0.0006274293223775705
s((I4
I-4
tp92
g18
tp93
F0.0006763647220583471
s((I6
I0
tp94
g8
tp95
F0.007050510020444364
s(g32
g35
tp96
I0
s((I10
I-2
tp97
g18
tp98
F3.2264980405542945e-05
s(g32
g18
tp99
F0.0009885254992118224
s(g59
g8
tp100
F0.0002443228084216278
s(g27
g18
tp101
F0.00100456328616182
s((I1
I-1
tp102
g21
tp103
I0
s((I4
I4
tp104
g8
tp105
F0.001002824482213675
s((I6
I1
tp106
g18
tp107
F0.00956716808232707
s((I8
I-1
tp108
g18
tp109
F0.04477468706959076
s((I10
I1
tp110
g35
tp111
F3.272654855184334e-05
s(g65
g8
tp112
F6.840075244476391e-06
s(g110
g8
tp113
F4.359300049401924e-05
s(g67
g18
tp114
F0.00014679394192310846
s(g4
g11
tp115
I0
s(g90
g8
tp116
F0.0008983453830511653
s(g61
g21
tp117
I0
s((I5
I-4
tp118
g8
tp119
F0.0008427210515628805
s((I4
I-1
tp120
g18
tp121
F0.4889697476517264
s((I6
I-2
tp122
g35
tp123
F0.0030789323222987614
s(g29
S'R'
p124
tp125
I0
s(g73
g8
tp126
F0.0005006763044474326
s(g53
g18
tp127
F0.00013383434052384742
s((I5
I4
tp128
g35
tp129
F2.1304118116869403e-07
s((I7
I2
tp130
g35
tp131
F0.003277381881153754
s((I5
I3
tp132
g8
tp133
F0.0011150243353696032
s((I2
I-1
tp134
g8
tp135
F0.7681427392070173
s((I2
I2
tp136
g8
tp137
F0.5326153879007793
s((I6
I2
tp138
g8
tp139
F0.012158000515864312
s((I9
I4
tp140
g35
tp141
F0.0019643876243031428
s(g140
g8
tp142
F0.0007671095647705669
s(g61
g11
tp143
F0.5
s((I5
I2
tp144
g18
tp145
F0.016847879866528158
s((I10
I3
tp146
g8
tp147
F8.420413515927041e-05
s(g92
g35
tp148
F0.02177247238335241
s((I5
I-1
tp149
g8
tp150
F0.0034374520161675193
s((I1
I1
tp151
g35
tp152
I0
s((I5
I0
tp153
g18
tp154
F0.21840957720399368
s(g130
g8
tp155
F0.0077641125997355885
s((I1
I-2
tp156
g21
tp157
F0.0
s(g151
g18
tp158
I0
s(g94
g35
tp159
F0.005120396483528661
s(g97
g35
tp160
F2.372260071802078e-05
s(g149
g35
tp161
F0.0752676034960291
s((I4
I0
tp162
g18
tp163
F0.2458599003200679
s(g13
g18
tp164
F0.7565389342199507
s((I5
I-3
tp165
g35
tp166
F0.007218161743359903
s(g110
g18
tp167
F2.4049930800371952e-05
s((I8
I1
tp168
g18
tp169
F0.007394052383891917
s((I10
I-3
tp170
g18
tp171
F7.228378024198078e-06
s(g156
g11
tp172
I0
s(g102
g5
tp173
F0.5
s((I7
I4
tp174
g18
tp175
F0.0010631771169055358
s((I8
I-2
tp176
g8
tp177
F0.0003904913765237904
s(g63
g18
tp178
F0.0031529131329247812
s((I10
I2
tp179
g8
tp180
F6.553690852889121e-06
s(g120
g8
tp181
F0.014505863629393526
s((I8
I-3
tp182
g18
tp183
F0.005498306415801943
s((I9
I-2
tp184
g35
tp185
F0.0007297503018749627
s(g55
g35
tp186
F0.17944524539880607
s(g88
g8
tp187
F0.00011247007807141415
s((I3
I-3
tp188
g8
tp189
F0.011609058417833565
s(g84
g18
tp190
F0.0029073288322143875
s(g162
g8
tp191
F0.0515562074275069
s(g86
g18
tp192
F6.859724020808643e-05
s(g13
g35
tp193
F0.5540339553670903
s((I1
I2
tp194
g21
tp195
I0
s(g82
g8
tp196
F0.20884620722541836
s(g108
g8
tp197
F0.0008442223522849947
s(g57
g8
tp198
F0.0004683314393721111
s(g34
g8
tp199
F0.09364542534874024
s(g82
g18
tp200
F1.092132418132032
s(g136
g35
tp201
F0.030055774228630677
s(g80
g8
tp202
F4.4739539113987103e-07
s((I5
I1
tp203
g8
tp204
F0.05755381720311887
s(g106
g8
tp205
F0.0337739713053383
s(g153
g8
tp206
F0.0297251185608264
s((I4
I2
tp207
g35
tp208
F0.005964346774582355
s(g138
g18
tp209
F0.004665586111705321
s((I8
I2
tp210
g18
tp211
F0.0011215861815793808
s(g17
g8
tp212
F0.004492708098589952
s(g210
g35
tp213
F0.005298308337207799
s((I9
I-4
tp214
g18
tp215
F0.00014850423928565917
s(g176
g18
tp216
F0.0009136094107991021
s((I8
I-4
tp217
g35
tp218
F0.00390993643592901
s(g104
g35
tp219
F1.3849709645764542e-07
s(g43
g11
tp220
F9.250221192085687e-05
s((I4
I3
tp221
g35
tp222
F1.5453762575386441e-06
s((I7
I1
tp223
g8
tp224
F0.0166145854512275
s(g223
g18
tp225
F0.005707051384793315
s(g207
g8
tp226
F0.1633638266121391
s(g174
g8
tp227
F0.00020336524557326406
s(g221
g8
tp228
F0.029500951992832366
s(g47
g8
tp229
F0.0024075399372088893
s(g25
g35
tp230
F0.003589756977273393
s(g188
g35
tp231
F0.00189884899148154
s((I3
I1
tp232
g8
tp233
F0.20673159117181328
s((I9
I3
tp234
g35
tp235
F0.0008974413424169874
s((I7
I-4
tp236
g8
tp237
F0.004071710022053749
s(g76
g18
tp238
F0.012364529330563895
s(g40
g8
tp239
F0.0023614052558465918
s((I4
I-2
tp240
g8
tp241
F0.004015545527634602
s((I1
I-3
tp242
g18
tp243
I0
s(g84
g8
tp244
F0.004292849522179331
s(g97
g8
tp245
F2.6218889672238578e-05
s(g242
g35
tp246
I0
s(g144
g35
tp247
F0.0029645428468009606
s(g217
g18
tp248
F0.12593954359304313
s(g88
g18
tp249
F0.00039762476568813335
s(g151
g8
tp250
I0
s(g106
g35
tp251
F0.001191873321446454
s(g168
g8
tp252
F0.007984712785123055
s(g92
g8
tp253
I0
s((I2
I-2
tp254
g35
tp255
F1.2293479282602853
s(g55
g18
tp256
F0.002414527395674445
s(g7
g35
tp257
F0.003011589878363045
s(g17
g35
tp258
F0.11980708760009554
s(g23
g8
tp259
F0.0009244934717959679
s(g40
g18
tp260
F0.029571409856248655
s(g20
g11
tp261
I0
s(g165
g8
tp262
F0.00013031692886312843
s(g242
g8
tp263
I0
s(g20
g5
tp264
I0
s((I10
I-1
tp265
g8
tp266
F4.272988994384982e-05
s(g138
g35
tp267
F0.0007773897213135814
s((I4
I1
tp268
g35
tp269
F0.025485693388273275
s(g174
g35
tp270
F0.0007642177766726232
s(g254
g8
tp271
F0.0019902058185646042
s(g130
g18
tp272
F0.0006214087333655228
s(g4
g21
tp273
F0.00805364320463862
s(g236
g18
tp274
F0.5526401740121643
s(g122
g8
tp275
F0.0002646058924974067
s(g268
g18
tp276
F0.644912807172024
s(g240
g18
tp277
F0.015300436463768058
s(g128
g18
tp278
F0.0010076831795594007
s(g265
g35
tp279
F3.939546018633944e-05
s(g134
g18
tp280
F1.0003570386951892
s(g194
g11
tp281
I0
s(g45
g35
tp282
F0.019819209233782345
s(g140
g18
tp283
F0.0011809221297398203
s(g47
g35
tp284
F0.0002799772019311578
s(g170
g35
tp285
F1.9955154330710695e-05
s((I6
I3
tp286
g35
tp287
F0.0036804684641850135
s(g156
g5
tp288
I0
s(g286
g18
tp289
F0.008268641084838334
s(g63
g35
tp290
F0.014485631594988677
s(g7
g18
tp291
F0.0008708794791396576
s(g67
g8
tp292
F0.09990224914427123
s(g149
g18
tp293
F0.10609308481325096
s(g184
g18
tp294
F0.0006050844316300605
s(g80
g35
tp295
F4.587727207469804e-07
s(g70
g35
tp296
F0.5941965893141296
s(g146
g18
tp297
F3.1462960127306483e-06
s(g29
S'G'
p298
tp299
I0
s(g102
g11
tp300
I0
s(g132
g18
tp301
F0.0031286348275808315
s(g90
g35
tp302
F0.0014269156981870693
s(g86
g8
tp303
F5.158920884950674e-05
s(g57
g35
tp304
F0.001419762815536315
s(g38
g18
tp305
F0.0012385374705337938
s(g10
g5
tp306
I0
s(g182
g8
tp307
F0.026471113711096873
s(g136
g18
tp308
F0.016119371566950536
s(g234
g8
tp309
F0.001299242194773269
s(g179
g18
tp310
F0.0006470483661335696
s(g128
g8
tp311
F0.0019810368191924598
s((I3
I-1
tp312
g35
tp313
F0.21358396462716356
s(g176
g35
tp314
F0.008249272594454498
s(g59
g18
tp315
F0.00023525708189854724
s(g194
g5
tp316
I0
s(g214
g35
tp317
F0.0005040482594850905
s(g94
g18
tp318
F0.6019821661131243
s(g240
g35
tp319
F0.06419905224443026
s(g184
g8
tp320
F0.0003412968935499975
s(g108
g35
tp321
F0.005811252619812751
s(g104
g18
tp322
F0.3782148683244339
s(g232
g35
tp323
F0.04447962541458925
s(g165
g18
tp324
F0.00029601090049895414
s(g70
g8
tp325
F0.9102849190164851
s(g168
g35
tp326
F0.005429039209249052
s(g312
g8
tp327
F0.041689012147581556
s(g122
g18
tp328
F0.002561204579708529
s(g312
g18
tp329
F1.1783682464425358
s(g10
g21
tp330
I0
s(g188
g18
tp331
F0.0004796045058139274
s(g234
g18
tp332
F0.00021494438777808905
s(g51
g35
tp333
F0.0032508894561493716
s(g182
g35
tp334
F0.00126209401718911
s(g217
g8
tp335
F0.0014224301065169133
s(g223
g35
tp336
F0.003588746839846958
s(g214
g8
tp337
F0.0006768703351339427
s(g207
g18
tp338
F0.025345313353119493
s(g65
g35
tp339
F2.4929956462115153e-06
s(g210
g8
tp340
F0.006484009693747934
s(g23
g35
tp341
F0.002067981527844911
s(g132
g35
tp342
F0.00601718509124978
s(g236
g35
tp343
F0.001038031193003338
s(g232
g18
tp344
F1.074913583624915
s(g76
g8
tp345
F0.029954420531152014
s(g203
g18
tp346
F0.01319456214156001
s(g27
g35
tp347
F0.00024498292516318085
s(g203
g35
tp348
F0.004314935980388267
s(g179
g35
tp349
F5.933064168001407e-06
s(g43
g5
tp350
F0.0507678425086152
s(g221
g18
tp351
F0.0
s(g286
g8
tp352
F0.003533523847732225
s(g118
g18
tp353
F0.00029613062145030287
s(g49
g18
tp354
F0.0002180309858030062
s(g144
g8
tp355
F0.007903711255304022
s(g134
g35
tp356
F1.2271835990861106
s(g49
g35
tp357
F0.0005161943642532104
s(g265
g18
tp358
F5.236052113868199e-05
s(g15
g21
tp359
I0
s(g162
g35
tp360
F0.03147886720374486
s(g153
g35
tp361
F0.023739962293357193
s(g254
g18
tp362
F0.0025422571535367875
s(g53
g35
tp363
F9.768004654263929e-05
s(g146
g35
tp364
F4.542047223514992e-06
s(g118
g35
tp365
F0.0006290530512403353
s(g170
g8
tp366
F3.1209897192683175e-06
s(g268
g8
tp367
F0.15506272889217704
s(g120
g35
tp368
F0.09036896832281692
stp369
Rp370
.