ccopy_reg
_reconstructor
p0
(cutil
Counter
p1
c__builtin__
dict
p2
(dp3
((I4
I7
tp4
S'G'
p5
tp6
F0.8063606202278112
s((I5
I10
tp7
g5
tp8
F0.32316476861124943
s((I5
I4
tp9
S'SR'
p10
tp11
F0.2271371261015445
s((I2
I1
tp12
S'R'
p13
tp14
F0.2967200507145348
s((I3
I11
tp15
g5
tp16
F0.5301966708606473
s((I9
I13
tp17
g10
tp18
F0.0009774220674323886
s((I8
I9
tp19
g13
tp20
F0.010563723041450214
s((I7
I5
tp21
g13
tp22
F0.02166685798653637
s((I8
I4
tp23
g13
tp24
F0.008357158247221812
s((I5
I12
tp25
g13
tp26
F0.18335018711093967
s((I6
I8
tp27
g13
tp28
F0.06266655173353408
s((I5
I11
tp29
g13
tp30
F0.26391539399525593
s((I2
I13
tp31
g5
tp32
F0.12521052309814276
s((I1
I8
tp33
g13
tp34
F0.615539041485719
s((I6
I13
tp35
g5
tp36
F0.013039368669826242
s((I0
I1
tp37
g10
tp38
F0.18432786250954214
s((I6
I11
tp39
g5
tp40
F0.07199749733922854
s((I6
I1
tp41
S'SR'
p42
tp43
F0.0243085978093582
s((I8
I9
tp44
g5
tp45
F0.021547486755094013
s((I4
I7
tp46
g10
tp47
F0.43781852511301517
s((I1
I4
tp48
g13
tp49
F1.4952995897536425
s((I3
I1
tp50
g10
tp51
F0.17949015542270216
s((I8
I5
tp52
g42
tp53
F0.010669989135832442
s((I6
I4
tp54
g13
tp55
F0.07453674530783289
s((I5
I9
tp56
g5
tp57
F0.49969879399622136
s((I0
I0
tp58
g13
tp59
F0.0
s((I8
I0
tp60
g13
tp61
F0.0021355222372879783
s((I4
I13
tp62
g5
tp63
F0.055297172051957284
s((I9
I7
tp64
g5
tp65
F0.0065207084489949715
s((I3
I12
tp66
g42
tp67
F0.35184749032290674
s((I1
I5
tp68
g42
tp69
F1.733862398653685
s((I8
I8
tp70
g5
tp71
F0.0279330270475108
s((I9
I3
tp72
g42
tp73
F0.003494564565424855
s((I6
I12
tp74
g5
tp75
F0.03447246782849858
s((I0
I3
tp76
g42
tp77
F0.0
s((I5
I5
tp78
g13
tp79
F0.15916299218612967
s((I3
I6
tp80
g13
tp81
F0.5146671998279687
s((I1
I0
tp82
g13
tp83
F0.3425950155857735
s((I6
I10
tp84
g13
tp85
F0.08188319418802652
s((I3
I3
tp86
g42
tp87
F0.5530266008631894
s((I6
I9
tp88
g5
tp89
F0.15939336904482926
s((I3
I2
tp90
g10
tp91
F0.4295591446781209
s((I1
I13
tp92
g10
tp93
F0.3222318031538157
s((I5
I13
tp94
g5
tp95
F0.023408115653385922
s((I2
I7
tp96
g5
tp97
F1.319992994484815
s((I4
I10
tp98
g5
tp99
F0.6585688212966196
s((I6
I0
tp100
g42
tp101
F0.016241373521365704
s((I5
I1
tp102
g42
tp103
F0.06113526958895053
s((I9
I6
tp104
g13
tp105
F0.0023212848204885207
s((I9
I1
tp106
g42
tp107
F0.0011297858034868427
s((I9
I11
tp108
g10
tp109
F0.0027388663750303197
s((I6
I8
tp110
g5
tp111
F0.16451491551765413
s((I3
I10
tp112
g13
tp113
F0.7909798232881671
s((I4
I6
tp114
g13
tp115
F0.3076790311250615
s((I4
I5
tp116
g10
tp117
F0.5181862904448702
s((I1
I9
tp118
g10
tp119
F0.6914805653312927
s((I5
I8
tp120
g5
tp121
F0.4875438038181121
s((I3
I13
tp122
g42
tp123
F0.12842944123750205
s((I1
I12
tp124
g10
tp125
F1.7129072031148667
s((I6
I2
tp126
g42
tp127
F0.05692552489868014
s((I5
I10
tp128
g13
tp129
F0.20668905400293214
s((I7
I4
tp130
g42
tp131
F0.029307057720762433
s((I2
I9
tp132
g5
tp133
F1.373876060686722
s((I6
I0
tp134
g13
tp135
F0.01724008299308631
s((I0
I10
tp136
g5
tp137
F0.0
s((I4
I2
tp138
g10
tp139
F0.2369784168595968
s((I9
I10
tp140
g10
tp141
F0.003654599905549717
s((I3
I10
tp142
g5
tp143
F1.3707885068542014
s((I7
I12
tp144
g13
tp145
F0.029225174093065298
s((I1
I7
tp146
g42
tp147
F0.9270133018527927
s((I3
I0
tp148
g10
tp149
F0.11589276663537242
s((I6
I6
tp150
g13
tp151
F0.06453149067743821
s((I1
I2
tp152
g42
tp153
F1.7592331477491598
s((I4
I4
tp154
g13
tp155
F0.24691213981371832
s((I1
I12
tp156
g13
tp157
F1.9121932780538924
s((I6
I3
tp158
g42
tp159
F0.07642503248024077
s((I6
I5
tp160
g10
tp161
F0.09235108674625528
s((I8
I11
tp162
g5
tp163
F0.012248036443975228
s((I7
I9
tp164
g5
tp165
F0.06904079204996554
s((I0
I8
tp166
g5
tp167
F0.0
s((I7
I3
tp168
g13
tp169
F0.018017364301915702
s((I8
I7
tp170
g5
tp171
F0.03099012941761119
s((I2
I8
tp172
g5
tp173
F1.327843633596094
s((I3
I7
tp174
g10
tp175
F0.8452215458913526
s((I9
I8
tp176
g10
tp177
F0.003473980496063824
s((I8
I12
tp178
g42
tp179
F0.006003473598001236
s((I1
I10
tp180
g42
tp181
F1.2109531752576768
s((I4
I3
tp182
g13
tp183
F0.22743612303072397
s((I4
I9
tp184
g42
tp185
F0.5427699897941576
s((I8
I13
tp186
g5
tp187
F0.0021327436525972712
s((I2
I4
tp188
g13
tp189
F1.2567956940760372
s((I0
I0
tp190
g42
tp191
F0.0
s((I6
I4
tp192
g42
tp193
F0.09044227810147314
s((I5
I3
tp194
g13
tp195
F0.12516639300618193
s((I0
I7
tp196
g42
tp197
F0.0
s((I2
I5
tp198
g13
tp199
F1.2341200743650935
s((I7
I8
tp200
g13
tp201
F0.02605571901007445
s((I2
I2
tp202
g13
tp203
F0.4074063992777614
s((I6
I2
tp204
g13
tp205
F0.02628680530695432
s((I3
I12
tp206
g13
tp207
F0.6551715058216816
s((I2
I4
tp208
g10
tp209
F1.701791593490872
s((I8
I12
tp210
g5
tp211
F0.006522541775076385
s((I7
I13
tp212
g42
tp213
F0.00905133424086079
s((I2
I8
tp214
g10
tp215
F1.8448690790432969
s((I9
I4
tp216
g13
tp217
F0.002773536045188195
s((I5
I6
tp218
g13
tp219
F0.15966422417709733
s((I2
I3
tp220
g42
tp221
F1.6375787919808928
s((I8
I11
tp222
g42
tp223
F0.01152831620338948
s((I0
I9
tp224
g42
tp225
F0.0
s((I7
I0
tp226
g10
tp227
F0.005695560115675112
s((I0
I9
tp228
g5
tp229
F0.0
s((I5
I12
tp230
g5
tp231
F0.0814732713025051
s((I5
I2
tp232
g42
tp233
F0.14539014685074675
s((I9
I5
tp234
g42
tp235
F0.002667737896943189
s((I7
I10
tp236
g13
tp237
F0.02373869725101251
s((I4
I8
tp238
g13
tp239
F0.31445483290409465
s((I9
I4
tp240
g10
tp241
F0.0028198399234469584
s((I3
I4
tp242
g13
tp243
F0.5063607200970928
s((I7
I2
tp244
g13
tp245
F0.011335000199880232
s((I1
I11
tp246
g10
tp247
F1.9153618679486144
s((I2
I12
tp248
g13
tp249
F1.5890072203495682
s((I4
I11
tp250
g42
tp251
F0.36398512857818255
s((I8
I6
tp252
g13
tp253
F0.010194316114161054
s((I0
I13
tp254
g13
tp255
F0.17419809054240748
s((I8
I7
tp256
g13
tp257
F0.00884767994870094
s((I4
I5
tp258
g13
tp259
F0.3186585054802528
s((I5
I9
tp260
g13
tp261
F0.16693292429913928
s((I1
I6
tp262
g10
tp263
F1.5961295788220162
s((I2
I10
tp264
g13
tp265
F1.6484498981236078
s((I1
I10
tp266
g13
tp267
F1.8105462132283396
s((I4
I0
tp268
g10
tp269
F0.060389640045268485
s((I5
I11
tp270
g5
tp271
F0.20852144882593665
s((I8
I0
tp272
g42
tp273
F0.0022670003591777105
s((I4
I1
tp274
g10
tp275
F0.10308559157000051
s((I6
I13
tp276
g13
tp277
F0.031533941936021076
s((I8
I7
tp278
g10
tp279
F0.010058488488650137
s((I0
I11
tp280
g5
tp281
F0.0
s((I0
I8
tp282
g10
tp283
F0.12804953316424247
s((I0
I3
tp284
g13
tp285
F0.0
s((I7
I1
tp286
g10
tp287
F0.010893782856253129
s((I6
I8
tp288
g42
tp289
F0.09213075641889176
s((I9
I5
tp290
g13
tp291
F0.002560185664427243
s((I8
I3
tp292
g13
tp293
F0.006534701293034397
s((I3
I9
tp294
g5
tp295
F1.7130139190581457
s((I4
I0
tp296
g13
tp297
F0.06951298282774308
s((I5
I7
tp298
g10
tp299
F0.21597976695273635
s((I3
I0
tp300
g13
tp301
F0.10769263026621097
s((I0
I5
tp302
g42
tp303
F0.0
s((I2
I6
tp304
g13
tp305
F1.199232870579207
s((I2
I3
tp306
g13
tp307
F0.7031730989163067
s((I2
I10
tp308
g10
tp309
F1.803450724793765
s((I5
I13
tp310
g42
tp311
F0.040751988644924554
s((I8
I5
tp312
g13
tp313
F0.010207372153420255
s((I8
I8
tp314
g13
tp315
F0.008357179484875748
s((I8
I2
tp316
g10
tp317
F0.006497858099777001
s((I0
I9
tp318
g13
tp319
F0.0
s((I8
I3
tp320
g42
tp321
F0.009992414790897934
s((I3
I5
tp322
g10
tp323
F0.8178849935715816
s((I5
I1
tp324
g13
tp325
F0.037332613465555664
s((I6
I1
tp326
g13
tp327
F0.016483111931308466
s((I5
I0
tp328
g13
tp329
F0.03306303245387139
s((I0
I10
tp330
g10
tp331
F0.0
s((I0
I12
tp332
g5
tp333
F0.0
s((I7
I3
tp334
g42
tp335
F0.02997026386504897
s((I9
I9
tp336
g13
tp337
F0.0029201310543410363
s((I7
I12
tp338
g5
tp339
F0.013033710100113031
s((I5
I5
tp340
g10
tp341
F0.25636841604663785
s((I4
I9
tp342
g13
tp343
F0.31080931570826337
s((I9
I7
tp344
g42
tp345
F0.0033897122219534287
s((I7
I6
tp346
g13
tp347
F0.027517950570223423
s((I2
I7
tp348
g13
tp349
F1.2940299554099908
s((I9
I2
tp350
g42
tp351
F0.00247565093983982
s((I1
I6
tp352
g13
tp353
F0.5267354666003818
s((I5
I13
tp354
g13
tp355
F0.09675248854809634
s((I0
I12
tp356
g13
tp357
F0.0
s((I7
I11
tp358
g42
tp359
F0.024440444430101866
s((I5
I7
tp360
g5
tp361
F0.4408783288280199
s((I9
I11
tp362
g5
tp363
F0.003216650549902796
s((I8
I9
tp364
g10
tp365
F0.012410849258175505
s((I4
I2
tp366
g13
tp367
F0.11305010971722752
s((I7
I11
tp368
g5
tp369
F0.027789025199426273
s((I0
I4
tp370
g10
tp371
F0.12804953316424247
s((I6
I11
tp372
g10
tp373
F0.0682852417633936
s((I9
I9
tp374
g5
tp375
F0.005974899287384654
s((I9
I2
tp376
g13
tp377
F0.0010973473670017019
s((I2
I6
tp378
g42
tp379
F1.7226777414567789
s((I0
I11
tp380
g42
tp381
F0.0
s((I4
I13
tp382
g13
tp383
F0.16061809322521195
s((I4
I11
tp384
g5
tp385
F0.31971183288042904
s((I3
I1
tp386
g13
tp387
F0.12566396980112624
s((I5
I11
tp388
g10
tp389
F0.20950537763610344
s((I4
I6
tp390
g42
tp391
F0.48552219250506023
s((I7
I0
tp392
g13
tp393
F0.006703018468662679
s((I5
I8
tp394
g42
tp395
F0.25099551718042157
s((I9
I1
tp396
g13
tp397
F0.0008135806149758651
s((I8
I1
tp398
g10
tp399
F0.00396755845370231
s((I7
I10
tp400
g10
tp401
F0.036786353157182115
s((I0
I5
tp402
g13
tp403
F0.0
s((I0
I12
tp404
g42
tp405
F0.0
s((I9
I12
tp406
g13
tp407
F0.0030695673241016423
s((I3
I11
tp408
g42
tp409
F0.6934551342355678
s((I6
I12
tp410
g10
tp411
F0.04873465541675382
s((I9
I11
tp412
g13
tp413
F0.004210550712178089
s((I1
I1
tp414
g13
tp415
F0.394774904349527
s((I3
I7
tp416
g13
tp417
F0.5978782917121052
s((I6
I11
tp418
g13
tp419
F0.1061019186162903
s((I8
I1
tp420
g13
tp421
F0.00234341187783039
s((I1
I8
tp422
g5
tp423
F0.9786743139720249
s((I0
I11
tp424
g13
tp425
F0.0
s((I5
I9
tp426
g42
tp427
F0.24164445210331553
s((I9
I9
tp428
g42
tp429
F0.004949471908744166
s((I3
I8
tp430
g13
tp431
F0.5289595756487533
s((I5
I12
tp432
g10
tp433
F0.1184980913811479
s((I9
I12
tp434
g5
tp435
F0.0014870380512978596
s((I1
I7
tp436
g13
tp437
F0.6601133116794486
s((I3
I9
tp438
g42
tp439
F0.8355872377880459
s((I9
I0
tp440
g13
tp441
F0.000821973826135954
s((I0
I7
tp442
g13
tp443
F0.0
s((I1
I1
tp444
g42
tp445
F0.485242344455213
s((I0
I1
tp446
g13
tp447
F0.18764443098118555
s((I6
I10
tp448
g10
tp449
F0.1113240152460181
s((I6
I13
tp450
g10
tp451
F0.024468663166098668
s((I3
I11
tp452
g13
tp453
F0.8457471020152699
s((I7
I13
tp454
g5
tp455
F0.005978167474207176
s((I4
I12
tp456
g13
tp457
F0.39124370323495056
s((I5
I6
tp458
g42
tp459
F0.24801447488015402
s((I6
I7
tp460
g10
tp461
F0.08863116658705444
s((I9
I0
tp462
g42
tp463
F0.0008245196882946691
s((I2
I11
tp464
g42
tp465
F1.5307146888911063
s((I2
I10
tp466
g5
tp467
F1.6640199967363973
s((I8
I10
tp468
g5
tp469
F0.017188600264326385
s((I3
I13
tp470
g13
tp471
F0.26880012172330137
s((I9
I13
tp472
g5
tp473
F0.0008396581511477254
s((I6
I5
tp474
g13
tp475
F0.05701239871262524
s((I2
I1
tp476
g42
tp477
F0.37446885087630777
s((I1
I9
tp478
g13
tp479
F0.6214688107651631
s((I8
I13
tp480
g10
tp481
F0.0028863721484414977
s((I9
I8
tp482
g5
tp483
F0.009003936604661988
s((I0
I13
tp484
g5
tp485
F0.0
s((I1
I11
tp486
g5
tp487
F0.7374339599393425
s((I5
I0
tp488
g10
tp489
F0.03315427368211646
s((I4
I10
tp490
g13
tp491
F0.39457436284516567
s((I9
I10
tp492
g13
tp493
F0.003388096168817678
s((I4
I12
tp494
g5
tp495
F0.09125048457292044
s((I6
I9
tp496
g13
tp497
F0.05723040194257859
s((I8
I13
tp498
g13
tp499
F0.00564951768403453
s((I7
I9
tp500
g10
tp501
F0.031956083599521505
s((I9
I7
tp502
g13
tp503
F0.0022499528181616937
s((I4
I8
tp504
g5
tp505
F0.8352992591683925
s((I7
I8
tp506
g42
tp507
F0.03273233941389706
s((I3
I3
tp508
g13
tp509
F0.36878384624739896
s((I1
I3
tp510
g10
tp511
F1.931167739769608
s((I1
I4
tp512
g42
tp513
F1.8972755296074177
s((I1
I13
tp514
g13
tp515
F1.57129189335478
s((I3
I10
tp516
g10
tp517
F0.8393249774010034
s((I6
I6
tp518
g42
tp519
F0.09348842267971336
s((I9
I10
tp520
g5
tp521
F0.006231927551934082
s((I3
I9
tp522
g13
tp523
F0.5276049130218534
s((I7
I9
tp524
g13
tp525
F0.026840710974077735
s((I4
I4
tp526
g10
tp527
F0.47135553578804135
s((I9
I6
tp528
g10
tp529
F0.0030042416306889064
s((I1
I11
tp530
g13
tp531
F1.2702557516796968
s((I2
I11
tp532
g13
tp533
F1.7588821121172231
s((I0
I7
tp534
g5
tp535
F0.0
s((I7
I7
tp536
g5
tp537
F0.06730644479916899
s((I4
I3
tp538
g42
tp539
F0.2946613165518234
s((I1
I3
tp540
g13
tp541
F1.7577963417503306
s((I9
I3
tp542
g13
tp543
F0.001952416946317033
s((I5
I4
tp544
g13
tp545
F0.1724484471834488
s((I2
I0
tp546
g42
tp547
F0.20476801651444296
s((I1
I12
tp548
g5
tp549
F0.22989091402487602
s((I1
I10
tp550
g5
tp551
F1.8020485695159836
s((I3
I13
tp552
g5
tp553
F0.08202319847405928
s((I3
I7
tp554
g5
tp555
F1.3709596898910752
s((I1
I0
tp556
g42
tp557
F0.34794040721957054
s((I8
I10
tp558
g13
tp559
F0.010625047826536015
s((I4
I11
tp560
g13
tp561
F0.47618880639768724
s((I7
I13
tp562
g13
tp563
F0.0146634614211222
s((I4
I12
tp564
g42
tp565
F0.23148328612737654
s((I3
I5
tp566
g13
tp567
F0.49976804199618
s((I8
I4
tp568
g42
tp569
F0.00921679751469988
s((I1
I2
tp570
g13
tp571
F0.5080627945843059
s((I0
I8
tp572
g13
tp573
F0.0
s((I8
I8
tp574
g10
tp575
F0.01220715232624543
s((I2
I12
tp576
g5
tp577
F0.2986126199941326
s((I7
I7
tp578
g10
tp579
F0.03921415056254892
s((I1
I7
tp580
g5
tp581
F0.6304556354909531
s((I1
I13
tp582
g5
tp583
F0.11874121595257789
s((I2
I0
tp584
g13
tp585
F0.15036311323149362
s((I4
I7
tp586
g13
tp587
F0.30402890540587624
s((I5
I3
tp588
g42
tp589
F0.18553232447783236
s((I7
I11
tp590
g13
tp591
F0.041341776659701325
s((I2
I12
tp592
g10
tp593
F1.1208924208651394
s((I7
I4
tp594
g13
tp595
F0.02390942338987908
s((I8
I6
tp596
g42
tp597
F0.011745026553859556
s((I4
I8
tp598
g42
tp599
F0.5007273189027888
s((I2
I9
tp600
g42
tp601
F1.8859624469240541
s((I7
I5
tp602
g10
tp603
F0.03063598703584937
s((I3
I12
tp604
g5
tp605
F0.1360539587538251
s((I6
I7
tp606
g13
tp607
F0.0753127450908831
s((I4
I13
tp608
g42
tp609
F0.08052478733149285
s((I3
I4
tp610
g10
tp611
F0.7135999319178956
s((I9
I8
tp612
g13
tp613
F0.002419684753808751
s((I8
I2
tp614
g13
tp615
F0.0037292502519577285
s((I7
I7
tp616
g13
tp617
F0.024573424593384047
s((I1
I9
tp618
g5
tp619
F1.4285122739479383
s((I0
I13
tp620
g10
tp621
F0.79746189461867
s((I4
I9
tp622
g5
tp623
F0.8483876485141318
s((I7
I12
tp624
g42
tp625
F0.020921682451493978
s((I3
I2
tp626
g13
tp627
F0.1442350170004554
s((I0
I6
tp628
g10
tp629
F0.0
s((I0
I2
tp630
g13
tp631
F0.0
s((I6
I12
tp632
g13
tp633
F0.07367007911362643
s((I2
I2
tp634
g10
tp635
F0.9266320092315189
s((I7
I1
tp636
g13
tp637
F0.006572530518406944
s((I4
I10
tp638
g10
tp639
F0.5315263168175867
s((I2
I13
tp640
g10
tp641
F0.3020533260338467
s((I2
I7
tp642
g10
tp643
F1.8072908968173473
s((I8
I10
tp644
g10
tp645
F0.014692433308038584
s((I6
I3
tp646
g13
tp647
F0.041592770666528486
s((I2
I8
tp648
g13
tp649
F1.5732219821252496
s((I5
I7
tp650
g13
tp651
F0.17471787170197142
s((I5
I2
tp652
g13
tp653
F0.07001922916073326
s((I2
I9
tp654
g13
tp655
F1.4114904606882857
s((I0
I4
tp656
g13
tp657
F0.0
s((I6
I7
tp658
g5
tp659
F0.16812379814808145
s((I6
I9
tp660
g10
tp661
F0.10906088787198077
s((I3
I8
tp662
g5
tp663
F1.3771877408033113
s((I3
I8
tp664
g42
tp665
F0.8053760837322698
s((I0
I2
tp666
g10
tp667
F0.0
s((I7
I2
tp668
g10
tp669
F0.023222584968610117
s((I7
I10
tp670
g5
tp671
F0.04326008907969645
s((I8
I11
tp672
g13
tp673
F0.014255926147128272
s((I2
I11
tp674
g5
tp675
F0.9542264455967698
s((I8
I12
tp676
g13
tp677
F0.01018074687373473
s((I1
I5
tp678
g13
tp679
F0.6674906400658225
s((I7
I8
tp680
g5
tp681
F0.06433930885783559
s((I6
I10
tp682
g5
tp683
F0.1334351062233521
s((I0
I6
tp684
g13
tp685
F0.0
s((I5
I10
tp686
g10
tp687
F0.2556685291986984
s((I9
I12
tp688
g10
tp689
F0.001992345095086656
s((I3
I6
tp690
g42
tp691
F0.8441306650412714
s((I2
I5
tp692
g42
tp693
F1.7248571755189805
s((I9
I13
tp694
g13
tp695
F0.001470094401509586
s((I2
I13
tp696
g13
tp697
F0.8631323751590689
s((I4
I1
tp698
g13
tp699
F0.07369823378265065
s((I1
I8
tp700
g10
tp701
F0.4638349194960607
s((I5
I8
tp702
g13
tp703
F0.17623978007357602
s((I7
I6
tp704
g42
tp705
F0.027438825122593862
s((I0
I10
tp706
g13
tp707
F0.2432941130120607
stp708
Rp709
.