ccopy_reg
_reconstructor
p0
(cutil
Counter
p1
c__builtin__
dict
p2
(dp3
((I2
I-3
tp4
S'R'
p5
tp6
F2.491978178983603e-14
s((I9
I-1
tp7
S'R'
p8
tp9
F-9.561864744060467e-18
s((I6
I2
tp10
S'G'
p11
tp12
F4.3063994760653736e-23
s((I1
I3
tp13
S'L'
p14
tp15
F-0.5
s((I2
I1
tp16
g5
tp17
F-0.017463432779626246
s((I7
I-1
tp18
g8
tp19
F1.3123327252649393e-22
s((I8
I2
tp20
S'L'
p21
tp22
F6.633125495255366e-24
s((I1
I4
tp23
g14
tp24
F-0.12499991238602057
s((I9
I-4
tp25
S'G'
p26
tp27
F-7.389459606758631e-11
s((I7
I-2
tp28
g26
tp29
F1.9727482134796682e-23
s((I1
I-4
tp30
g11
tp31
F2.624806291071414e-09
s((I8
I-1
tp32
g26
tp33
F2.7914145634933407e-24
s((I8
I-4
tp34
g21
tp35
F-2.1437858972472785e-20
s((I4
I4
tp36
g14
tp37
F1.7904246418477033e-21
s((I3
I-4
tp38
g14
tp39
F3.3811058522439856e-19
s((I9
I0
tp40
g26
tp41
F8.036348366098923e-24
s((I4
I3
tp42
g14
tp43
F4.1050472065115324e-22
s((I5
I1
tp44
g14
tp45
F6.218214255544464e-22
s((I8
I4
tp46
g8
tp47
F1.6117849699590458e-23
s((I7
I1
tp48
g26
tp49
F7.813949627517944e-23
s((I4
I2
tp50
g5
tp51
F-1.683886340925918e-17
s((I7
I-3
tp52
g8
tp53
F4.125154329772048e-23
s(g42
g5
tp54
F8.407118267846413e-23
s(g20
g26
tp55
F6.513951733988983e-24
s((I5
I4
tp56
g14
tp57
F4.9212317633519294e-24
s(g46
g21
tp58
F7.132496578574998e-24
s((I2
I4
tp59
g14
tp60
F9.305290911848822e-11
s((I3
I-3
tp61
g14
tp62
F7.230748913092503e-22
s((I3
I1
tp63
g5
tp64
F-1.1858392544926215e-07
s((I3
I4
tp65
g5
tp66
F2.296792648157541e-18
s((I9
I3
tp67
g21
tp68
F5.805869632392094e-22
s((I2
I3
tp69
g14
tp70
F9.311975615887438e-12
s((I7
I2
tp71
g8
tp72
F4.1668430597180706e-23
s((I4
I0
tp73
g11
tp74
F-8.938693951824041e-09
s((I3
I2
tp75
g11
tp76
F2.0749123294977912e-19
s((I7
I0
tp77
g8
tp78
F8.256950868735188e-23
s((I4
I-2
tp79
g5
tp80
F3.376666288903665e-25
s((I2
I-4
tp81
g11
tp82
F4.7146226207223427e-14
s((I6
I4
tp83
g14
tp84
F2.948208252735279e-24
s((I1
I-3
tp85
g11
tp86
F1.254364967444193e-11
s(g81
g14
tp87
F1.8745387235898955e-14
s((I9
I1
tp88
g8
tp89
F5.199900777838146e-19
s(g77
g21
tp90
F8.118855822608244e-23
s(g85
g14
tp91
F-0.4999999999987064
s(g83
g5
tp92
F1.7846099614290905e-24
s(g38
g11
tp93
F2.890674021515218e-19
s((I6
I-1
tp94
g5
tp95
F1.8000066125255843e-23
s((I5
I2
tp96
g14
tp97
F2.1006142178470476e-23
s((I9
I2
tp98
g26
tp99
F1.1122181223911911e-20
s(g34
g26
tp100
F-1.0422219864018457e-19
s((I6
I-4
tp101
g5
tp102
F2.2631332922215476e-24
s((I8
I0
tp103
g8
tp104
F1.1006655328415917e-24
s((I6
I-3
tp105
g5
tp106
F1.1033072956284074e-24
s((I8
I3
tp107
g26
tp108
F6.302039504841974e-24
s((I6
I-2
tp109
g11
tp110
F-1.3903539935746582e-16
s((I1
I1
tp111
g5
tp112
F-1.0522526324282042
s((I6
I1
tp113
g14
tp114
F6.36752313168571e-23
s((I3
I-1
tp115
g5
tp116
F2.364447613613521e-20
s((I8
I1
tp117
g8
tp118
F1.8326784194469225e-24
s(g18
g26
tp119
F1.4192918745562925e-22
s((I4
I-4
tp120
g5
tp121
F2.351461551846802e-22
s((I9
I-3
tp122
g21
tp123
F-2.275578507218793e-13
s((I2
I-2
tp124
g14
tp125
F-2.769663487118594e-11
s((I1
I0
tp126
g5
tp127
F-1.0127357498800618
s((I5
I-1
tp128
g5
tp129
F9.295128248205472e-23
s((I3
I-2
tp130
g11
tp131
F7.893123754260193e-22
s((I9
I-2
tp132
g21
tp133
F2.606504391787125e-15
s(g28
g21
tp134
F2.6748355674929063e-23
s(g40
g8
tp135
F1.0723492005824111e-18
s(g77
g26
tp136
F6.689186547930517e-23
s(g30
g14
tp137
F-0.4999999987046448
s((I5
I-3
tp138
g5
tp139
F1.7993810729422043e-25
s((I10
I4
tp140
g26
tp141
F0.0
s(g85
g5
tp142
F-0.2499999996497764
s(g30
g5
tp143
F-0.37499995806573844
s(g94
g11
tp144
F2.820286307436343e-23
s(g10
g14
tp145
F3.444023799855597e-23
s((I4
I1
tp146
g14
tp147
F1.997348448644962e-23
s((I3
I0
tp148
g14
tp149
F-1.450195367400829e-08
s((I7
I4
tp150
g21
tp151
F8.995944860076756e-24
s((I2
I-1
tp152
g5
tp153
F2.0874250322282185e-06
s(g71
g26
tp154
F3.7218524832079876e-23
s(g46
g26
tp155
F2.360303336153683e-22
s(g4
g11
tp156
F1.4040321166028978e-14
s((I4
I-3
tp157
g14
tp158
F2.1250305389985614e-23
s(g157
g11
tp159
F1.7991454687958715e-23
s(g75
g14
tp160
F1.311000654725022e-19
s((I7
I-4
tp161
g26
tp162
F4.0014308294070373e-23
s(g23
g5
tp163
F-1.6149626501669555e-78
s(g109
g5
tp164
F2.0609183615839684e-24
s(g103
g26
tp165
F1.5071632913739441e-24
s(g111
g14
tp166
F-0.20342874277201012
s((I10
I-4
tp167
g26
tp168
F-1.0270275263748602e-14
s((I4
I-1
tp169
g11
tp170
F-4.0447580146117496e-12
s(g56
g11
tp171
F6.0650205471875475e-24
s((I2
I0
tp172
g11
tp173
F-0.652371357209705
s(g128
g14
tp174
F9.990941087940404e-22
s(g152
g11
tp175
F-0.5002572659295071
s((I1
I2
tp176
g14
tp177
F3.021719904252283e-11
s(g88
g21
tp178
F2.7614758012483354e-20
s((I1
I-1
tp179
g14
tp180
F-1.007867856583822
s(g107
g21
tp181
F2.8261594682444357e-23
s(g94
g14
tp182
F3.3786795210478026e-23
s((I7
I3
tp183
g26
tp184
F3.4075510223277153e-23
s(g120
g11
tp185
F7.188229648835168e-23
s((I6
I0
tp186
g5
tp187
F3.751838095336796e-23
s(g65
g14
tp188
F3.881502472799169e-18
s(g98
g21
tp189
F2.7117276265865488e-21
s((I10
I-3
tp190
g21
tp191
I0
s(g81
g5
tp192
F7.800797083651049e-14
s((I6
I3
tp193
g14
tp194
F4.120265439505922e-24
s(g65
g11
tp195
F2.8696902299090844e-18
s(g71
g21
tp196
F5.1351430646049635e-23
s(g193
g11
tp197
F5.156913891098806e-24
s(g122
g8
tp198
F-1.9770630127735246e-14
s((I5
I-2
tp199
g14
tp200
F-5.946758920845323e-14
s(g52
g26
tp201
F9.880147470362089e-23
s(g115
g11
tp202
F-0.0024973468314412866
s(g199
g11
tp203
F7.488728024704629e-23
s(g132
g26
tp204
F-5.966291859089119e-13
s(g167
g21
tp205
F-9.035424406182751e-19
s(g172
g14
tp206
F-0.0719826841614185
s(g190
g26
tp207
F-2.5547826771660184e-18
s(g36
g5
tp208
F1.4443887774943958e-21
s(g59
g11
tp209
F4.2906916054989086e-14
s((I5
I3
tp210
g11
tp211
F1.8275250554873266e-23
s(g113
g11
tp212
F4.9087264779958823e-23
s((I8
I-2
tp213
g26
tp214
F1.4296811780007634e-24
s(g183
g21
tp215
F2.963564232794144e-23
s((I9
I4
tp216
g26
tp217
F-1.774650258031702e-17
s(g18
g21
tp218
F8.949569626816027e-23
s(g140
g8
tp219
F-3.4523050968252943e-16
s((I3
I3
tp220
g11
tp221
F3.0060239335050973e-19
s(g4
g14
tp222
F4.85821852854374e-15
s(g183
g8
tp223
F5.10614092940716e-23
s(g83
g11
tp224
F1.9428708690553656e-24
s(g13
g5
tp225
F-0.25499999995855727
s((I8
I-3
tp226
g8
tp227
F1.0506961028276994e-22
s(g179
g11
tp228
F-0.879999999801032
s((I2
I2
tp229
g11
tp230
F1.0090658792790568e-13
s(g126
g11
tp231
F-0.9787499998528725
s((I5
I-4
tp232
g5
tp233
F4.782760165507241e-23
s(g67
g8
tp234
F1.9424392022187013e-20
s(g79
g11
tp235
F8.336832365629128e-23
s(g109
g14
tp236
F2.780744167841937e-24
s(g56
g5
tp237
F5.625634057565326e-24
s(g59
g5
tp238
F1.615971120944716e-12
s(g157
g5
tp239
F2.042791755132336e-23
s(g98
g8
tp240
F1.003577051315045e-19
s(g130
g14
tp241
F-2.1939220496205486e-12
s((I1
I-2
tp242
g5
tp243
F-0.37499999912131615
s(g213
g21
tp244
F2.2732339101956585e-24
s(g113
g5
tp245
F5.742394324253465e-23
s(g229
g5
tp246
F-0.018308300271085657
s(g146
g11
tp247
F-9.066321067927946e-13
s(g122
g26
tp248
F-4.419042383519695e-17
s(g10
g5
tp249
F5.2882960918080484e-23
s(g216
g21
tp250
F5.73496256047194e-23
s(g146
g5
tp251
F-1.743699941216573e-12
s(g176
g5
tp252
F-0.7499928006486813
s(g25
g21
tp253
F-1.0931088556768338e-12
s(g140
g21
tp254
F-2.0540550527497203e-16
s(g186
g11
tp255
F1.4733331124057253e-22
s(g79
g14
tp256
F-2.874136407121332e-19
s(g132
g8
tp257
F-3.349287792275723e-16
s(g32
g21
tp258
F2.58710084238703e-24
s(g126
g14
tp259
F-0.8405891383633123
s(g20
g8
tp260
F5.577437650201041e-24
s(g96
g11
tp261
F1.5571440900645795e-23
s((I10
I3
tp262
g8
tp263
I0
s(g63
g14
tp264
F-1.3951359049508717e-17
s(g138
g11
tp265
F1.6646384940370938e-23
s(g172
g5
tp266
F-0.00014838832301347703
s(g117
g21
tp267
F3.173973291563382e-24
s(g120
g14
tp268
F3.0368959480043016e-23
s(g130
g5
tp269
F3.2000146831728613e-22
s(g199
g5
tp270
F3.2744280759851706e-23
s((I3
I3
tp271
g14
tp272
F2.4596250678310855e-19
s(g69
g11
tp273
F4.734838722727583e-14
s(g13
g11
tp274
F2.394532132409483e-11
s((I5
I0
tp275
g11
tp276
F2.1192747914947043e-22
s(g242
g14
tp277
F-0.7499999999941394
s(g150
g8
tp278
F6.3046369035152754e-24
s(g242
g11
tp279
F4.638722274946133e-05
s(g67
g26
tp280
F1.1053035675870216e-21
s(g103
g21
tp281
F5.2741179640648905e-24
s(g226
g21
tp282
F6.621577323442267e-24
s(g34
g8
tp283
F5.438426630525952e-23
s(g48
g21
tp284
F5.226726218863134e-23
s(g32
g8
tp285
F2.178527532256617e-24
s(g186
g14
tp286
F4.6138481224915434e-23
s(g105
g11
tp287
F-1.779056689834241e-15
s(g25
g8
tp288
F3.656645844062212e-22
s(g210
g5
tp289
F1.7346486242526748e-23
s(g161
g8
tp290
F5.996633854204237e-23
s(g16
g11
tp291
F-0.07229778011639462
s(g61
g11
tp292
F1.9956533624280522e-22
s(g40
g21
tp293
F1.058143987568655e-18
s(g210
g14
tp294
F9.86844663793842e-24
s(g161
g21
tp295
F3.699986646381727e-23
s(g138
g14
tp296
F1.429686477984803e-25
s(g117
g26
tp297
F2.1440651720777085e-24
s(g220
g5
tp298
F3.2463406427267414e-19
s(g63
g11
tp299
F-2.0534297543699593e-06
s(g179
g5
tp300
F-0.6058795794376366
s(g61
g5
tp301
F1.3008830445907299e-19
s(g213
g8
tp302
F1.7381745162182258e-24
s(g75
g5
tp303
F-5.024545589480186e-13
s(g52
g21
tp304
F2.841145483240577e-23
s(g128
g11
tp305
F-1.0485743810440066e-13
s(g111
g11
tp306
F-0.9218749988860445
s(g169
g5
tp307
F3.264852889465857e-23
s(g44
g11
tp308
F7.767698959706554e-22
s(g124
g5
tp309
F9.553629054470939e-16
s(g48
g8
tp310
F5.760834232423477e-23
s(g226
g26
tp311
F-1.4102549791761986e-20
s(g38
g5
tp312
F7.8248928390643215e-19
s(g42
g11
tp313
F7.713935888377073e-23
s(g193
g5
tp314
F5.499289883010442e-24
s(g232
g11
tp315
F3.040616720797219e-23
s(g101
g11
tp316
F2.0922940041175748e-24
s(g96
g5
tp317
F1.3471055734538394e-23
s(g152
g14
tp318
F-0.002048116067838739
s((I9
I-1
tp319
g21
tp320
F1.3282257330315776e-17
s(g101
g14
tp321
F2.1415181660775615e-24
s(g115
g14
tp322
F-0.00021690168753743663
s(g107
g8
tp323
F2.4319660372419124e-24
s(g150
g26
tp324
F1.2722620727284394e-23
s(g88
g26
tp325
F2.721160990937095e-19
s(g73
g5
tp326
F2.4110069753211336e-21
s(g16
g14
tp327
F-3.5697076368157175e-07
s(g23
g11
tp328
F1.9882356029420523e-09
s(g176
g11
tp329
F1.9967944231608404e-08
s(g148
g5
tp330
F-4.993334822937762e-05
s(g73
g14
tp331
F-3.576985903436423e-15
s(g28
g8
tp332
F2.0189471904694015e-23
s(g69
g5
tp333
F3.43160389847315e-14
s(g148
g11
tp334
F-2.173644886445313e-05
s(g229
g14
tp335
F3.75473705420345e-12
s(g216
g8
tp336
F1.911056163130079e-21
s(g36
g11
tp337
F9.829429351469747e-22
s(g275
g14
tp338
F1.0810382180790722e-21
s(g167
g8
tp339
F-6.904610193650591e-18
s(g44
g5
tp340
F1.205426961083412e-21
s(g50
g11
tp341
F2.692740084650768e-23
s(g262
g26
tp342
F-9.726959776139946e-17
s(g275
g5
tp343
F6.847373608592633e-22
s(g50
g14
tp344
F2.596631273313073e-23
s(g319
g26
tp345
F1.3243598288364034e-17
s(g105
g14
tp346
F-2.8198533526112306e-15
s(g262
g21
tp347
I0
s(g232
g14
tp348
F3.8929331270939986e-23
s(g190
g8
tp349
F-1.5412203662576548e-19
s(g124
g11
tp350
F2.450913659923249e-15
s(g169
g14
tp351
F-1.2389930280240028e-10
stp352
Rp353
.