ccopy_reg
_reconstructor
p0
(cutil
Counter
p1
c__builtin__
dict
p2
(dp3
((I6
I2
tp4
S'G'
p5
tp6
F1.99335524533709e-06
s((I8
I2
tp7
g5
tp8
F1.5388672964131902e-05
s(g7
S'L'
p9
tp10
F1.4685882991902017e-06
s((I1
I4
tp11
g9
tp12
F-0.7718749974693687
s((I7
I-1
tp13
g5
tp14
F1.886253709767657e-06
s((I1
I-4
tp15
g5
tp16
F-0.9062499728240349
s((I8
I-1
tp17
g5
tp18
F1.7244875696660454e-06
s((I8
I-4
tp19
g9
tp20
F2.460374038473692e-05
s((I4
I4
tp21
g9
tp22
F-1.8838418028268148e-31
s((I3
I-4
tp23
g9
tp24
F8.617689838646133e-08
s((I4
I3
tp25
g9
tp26
F5.389205071988907e-10
s((I7
I1
tp27
S'R'
p28
tp29
F1.1150253928950204e-05
s((I8
I4
tp30
g28
tp31
F2.3407745046784323e-05
s(g27
g5
tp32
F-0.03786450016832831
s((I4
I2
tp33
g28
tp34
F2.394688013814548e-10
s((I7
I-3
tp35
g28
tp36
F4.618248125326083e-06
s(g25
g28
tp37
F-1.2558945352178766e-30
s((I2
I1
tp38
g28
tp39
F-0.08822859374999993
s((I5
I4
tp40
g9
tp41
F5.331653029194129e-06
s(g30
g9
tp42
F1.6850115528656418e-05
s((I2
I4
tp43
g9
tp44
F1.0674095483200236e-08
s((I3
I-3
tp45
g9
tp46
I0
s(g33
g5
tp47
I0
s((I3
I4
tp48
g28
tp49
F2.3819546396032044e-07
s((I2
I3
tp50
g9
tp51
I0
s((I7
I-4
tp52
g28
tp53
F4.211204733606172e-07
s((I3
I2
tp54
g5
tp55
F-0.0002977715039062498
s((I7
I0
tp56
g28
tp57
F9.387030605419068e-07
s((I4
I-1
tp58
g28
tp59
F1.742486518867631e-21
s((I2
I-4
tp60
g5
tp61
F1.0485025408269494e-07
s((I6
I4
tp62
g9
tp63
F2.7828068614073297e-06
s(g60
g9
tp64
F2.5748032057853472e-08
s(g56
g9
tp65
F1.2723889548344732e-06
s(g62
g28
tp66
F2.96346804215893e-06
s(g23
g5
tp67
F7.731017754783444e-07
s((I6
I-1
tp68
g28
tp69
F1.1813900072095703e-09
s((I5
I2
tp70
g9
tp71
I0
s(g19
g5
tp72
F-0.005205423533273916
s((I6
I-4
tp73
g28
tp74
F6.122454109350828e-07
s((I8
I0
tp75
g28
tp76
F1.3067675044081216e-08
s((I6
I-3
tp77
g28
tp78
F2.3229658462275878e-08
s((I8
I3
tp79
g5
tp80
F1.5681450985592398e-05
s((I6
I-2
tp81
g5
tp82
F1.9739339294783848e-08
s((I6
I1
tp83
g9
tp84
F6.011200724147782e-11
s((I8
I1
tp85
g28
tp86
F-8.84762687286184e-06
s((I7
I-2
tp87
g5
tp88
F4.0103685657821325e-10
s((I4
I-4
tp89
g28
tp90
F1.5653007533239034e-06
s((I1
I0
tp91
g28
tp92
F-1.1703124946935966
s((I5
I-1
tp93
g28
tp94
F-7.471144337867864e-08
s(g13
g9
tp95
F5.082570274251988e-11
s(g56
g5
tp96
F1.3139115503110097e-06
s(g15
g9
tp97
F-0.9907812480959317
s((I5
I-3
tp98
g28
tp99
F9.413913083229888e-26
s(g15
g28
tp100
F-0.8974999999797327
s(g68
g5
tp101
F-1.099277349422801e-08
s(g4
g9
tp102
F6.222897698035758e-07
s((I4
I1
tp103
g9
tp104
I0
s((I7
I4
tp105
g9
tp106
F5.814140719932721e-05
s(g103
g5
tp107
F-4.466567909142749e-05
s((I7
I2
tp108
g5
tp109
F2.3772470510559823e-05
s(g30
g5
tp110
F1.845805728431629e-05
s((I4
I-3
tp111
g9
tp112
F8.41998843256093e-07
s(g111
g5
tp113
F4.899956686453885e-08
s(g54
g9
tp114
F-0.001985143359374999
s(g52
g5
tp115
F-4.330578020321395e-07
s(g11
g28
tp116
F-0.7499999736953814
s(g81
g28
tp117
F-1.1008957166121784e-10
s(g75
g5
tp118
F1.0223001139796769e-05
s(g58
g5
tp119
I0
s(g40
g5
tp120
F4.752310404086865e-06
s((I2
I0
tp121
g5
tp122
F-0.586249999999983
s((I5
I-2
tp123
g9
tp124
F1.4120869624844826e-26
s((I1
I2
tp125
g9
tp126
I0
s(g79
g9
tp127
F1.3949552831404149e-05
s(g68
g9
tp128
F-5.065240022230084e-10
s((I7
I3
tp129
g5
tp130
F3.888548760856969e-05
s(g89
g5
tp131
F1.918604967227744e-06
s((I6
I0
tp132
g28
tp133
I0
s(g48
g9
tp134
F2.471449050073328e-13
s(g11
g5
tp135
F-0.0002439382196869238
s((I6
I3
tp136
g9
tp137
F1.9660058628905914e-06
s(g48
g5
tp138
F-4.2386440563603326e-33
s(g108
g9
tp139
F-8.204426957545346e-06
s(g136
g5
tp140
F2.3728372050667552e-06
s(g93
g9
tp141
F8.66008033846315e-08
s(g35
g5
tp142
F-0.04920071203197077
s((I3
I3
tp143
g28
tp144
F1.0984218000325899e-11
s(g93
g5
tp145
F9.651256599154967e-08
s(g13
g28
tp146
F1.4017300516679316e-06
s(g21
g28
tp147
F7.687283525292013e-07
s(g43
g5
tp148
F-6.357966084540499e-34
s((I5
I3
tp149
g5
tp150
F4.246343687958232e-10
s(g83
g5
tp151
F7.613998778074389e-07
s((I8
I-2
tp152
g5
tp153
I0
s(g129
g9
tp154
F1.8130712913453753e-05
s(g87
g9
tp155
F3.900844882673581e-12
s(g129
g28
tp156
F-0.004862620555587761
s(g62
g5
tp157
F2.7823700465024387e-05
s((I8
I-3
tp158
g28
tp159
I0
s((I2
I2
tp160
g5
tp161
I0
s(g91
g5
tp162
F-1.0008421929090046
s((I5
I-4
tp163
g28
tp164
F4.6844477160895303e-07
s(g105
g28
tp165
F-1.7458983051248553e-05
s((I4
I-2
tp166
g5
tp167
F1.8213408707355002e-07
s(g81
g9
tp168
F4.475287666121703e-11
s(g40
g28
tp169
I0
s(g43
g28
tp170
F4.1737850763721027e-07
s(g111
g28
tp171
F1.2532651951870627e-07
s(g17
g9
tp172
F1.303698380385971e-39
s(g160
g28
tp173
I0
s(g4
g28
tp174
F2.152607498659204e-06
s(g125
g28
tp175
F-0.574999999999886
s(g132
g5
tp176
F5.946919579018973e-09
s(g58
g9
tp177
F1.1053801337036987e-07
s(g152
g9
tp178
F3.862810015958432e-37
s(g91
g9
tp179
F-1.3518828112792365
s(g7
g28
tp180
F1.3705051335902678e-06
s(g70
g5
tp181
F1.6324371642594115e-17
s(g21
g5
tp182
F-8.372630234785843e-30
s(g98
g5
tp183
F7.156624541445269e-08
s(g121
g28
tp184
I0
s(g85
g9
tp185
F1.6766282893017678e-06
s(g89
g9
tp186
F7.109351376075449e-07
s(g143
g5
tp187
I0
s(g123
g28
tp188
F3.291895616408599e-08
s(g143
g9
tp189
F1.6476327000488851e-12
s(g50
g5
tp190
F3.2902839411204345e-08
s((I5
I0
tp191
g5
tp192
I0
s(g108
g28
tp193
F2.6139791640181283e-05
s(g45
g5
tp194
F1.5133799296251947e-06
s(g75
g9
tp195
F7.192262365302465e-07
s(g158
g9
tp196
F0.00030962347124146336
s(g19
g28
tp197
F1.2863488475808973e-05
s((I5
I1
tp198
g28
tp199
F2.2103874156073054e-08
s(g17
g28
tp200
I0
s(g132
g9
tp201
F9.756697874869722e-11
s(g77
g5
tp202
I0
s(g149
g28
tp203
F2.3245491025753615e-06
s((I4
I0
tp204
g5
tp205
I0
s(g38
g5
tp206
I0
s(g149
g9
tp207
F6.369515531937348e-11
s(g52
g9
tp208
F1.0238748033593845e-05
s(g98
g9
tp209
I0
s(g85
g5
tp210
F-0.0004261231523777952
s(g105
g5
tp211
F8.713261048483391e-05
s(g152
g28
tp212
F1.716804451537081e-35
s(g54
g28
tp213
I0
s(g123
g5
tp214
F1.866558981505731e-07
s(g166
g28
tp215
F1.3549097389660179e-08
s(g198
g5
tp216
I0
s(g35
g9
tp217
F1.1472565900821333e-06
s(g198
g9
tp218
I0
s(g158
g5
tp219
F2.3104693977787282e-05
s(g23
g28
tp220
F4.7674688151995355e-07
s(g25
g5
tp221
F8.083807607983363e-11
s(g136
g28
tp222
F6.0179992481003984e-06
s(g163
g5
tp223
F2.217563432564043e-06
s(g73
g5
tp224
F1.3397031123872553e-06
s(g70
g28
tp225
F2.233471280599877e-07
s(g73
g9
tp226
F6.098745394704888e-06
s(g79
g28
tp227
F1.4323614634066353e-05
s(g45
g28
tp228
I0
s(g204
g28
tp229
I0
s(g38
g9
tp230
F-0.5879374999999972
s(g60
g28
tp231
F9.358611168218357e-32
s(g125
g5
tp232
I0
s(g204
g9
tp233
F1.1616576792450877e-20
s(g87
g28
tp234
F2.7104056359672122e-06
s(g50
g28
tp235
I0
s(g121
g9
tp236
I0
s(g160
g9
tp237
F-0.5881906249999994
s(g191
g9
tp238
F4.9143062706925167e-08
s(g27
g9
tp239
F6.673856583251979e-07
s(g83
g28
tp240
F5.1673592151018665e-06
s(g191
g28
tp241
F-1.0048734866880274e-06
s(g33
g9
tp242
I0
s(g77
g9
tp243
F-7.350457270593885e-25
s(g163
g9
tp244
F4.6811534873923725e-06
s(g103
g28
tp245
I0
s(g166
g9
tp246
F5.189790186746092e-07
stp247
Rp248
.