ccopy_reg
_reconstructor
p0
(cutil
Counter
p1
c__builtin__
dict
p2
(dp3
((I2
I-3
tp4
S'R'
p5
tp6
F0.0005368754261783538
s((I1
I3
tp7
S'L'
p8
tp9
F0.005195814273975684
s((I2
I1
tp10
g5
tp11
F0.2011052160563489
s((I0
I1
tp12
g8
tp13
I0
s((I1
I4
tp14
g8
tp15
F0.00040215564104138096
s(g12
S'G'
p16
tp17
F0.500005247924925
s((I1
I-4
tp18
g16
tp19
F0.0009216448092345727
s((I4
I4
tp20
g8
tp21
F0.0003049266227485326
s((I3
I-4
tp22
g8
tp23
F0.0008834806757677656
s((I4
I3
tp24
g8
tp25
F0.0005803448368272348
s((I5
I1
tp26
g8
tp27
F5.375849010549873e-05
s((I4
I2
tp28
g5
tp29
F0.009260384806465993
s(g24
g5
tp30
F0.0025089040434294538
s((I5
I4
tp31
g8
tp32
F1.751131643171636e-10
s((I2
I4
tp33
g8
tp34
F0.0007468098420427063
s((I3
I-3
tp35
g8
tp36
F0.0006585065928721353
s((I3
I1
tp37
g5
tp38
F0.06786918949951576
s((I3
I4
tp39
g5
tp40
F0.00884705208231164
s((I1
I1
tp41
g16
tp42
F0.9009320371115188
s((I4
I0
tp43
g16
tp44
F0.001476030802648068
s((I3
I2
tp45
g16
tp46
F0.01953255454706108
s(g22
g5
tp47
F0.0022279088555280145
s((I4
I-1
tp48
g5
tp49
F0.00215928574661796
s((I2
I-4
tp50
g16
tp51
F0.0017147157077204076
s((I0
I-2
tp52
g16
tp53
I0
s((I1
I-3
tp54
g16
tp55
F0.00040441828877650415
s(g50
g8
tp56
F6.752472890818758e-05
s(g54
g8
tp57
F3.1818105418334705e-05
s(g22
g16
tp58
F0.0015760516231038944
s((I5
I2
tp59
g8
tp60
F3.75938114888612e-05
s((I0
I3
tp61
g16
tp62
I0
s(g41
g5
tp63
F0.4777611000054911
s((I3
I3
tp64
g16
tp65
F0.004595871111264761
s((I4
I-4
tp66
g5
tp67
F0.0002554363928658786
s((I2
I-1
tp68
g8
tp69
F0.30879049529507824
s((I1
I0
tp70
g5
tp71
F0.2927228532110823
s((I5
I-1
tp72
g5
tp73
F0.00015415110665570014
s((I3
I-2
tp74
g16
tp75
F0.01268330440411155
s((I0
I2
tp76
g16
tp77
I0
s(g18
g8
tp78
F3.84213717482135e-05
s((I5
I-3
tp79
g5
tp80
F1.9455365743024146e-06
s(g12
g5
tp81
I0
s(g54
g5
tp82
F0.00010769119911076171
s(g18
g5
tp83
F1.1803902999968143e-14
s((I4
I1
tp84
g8
tp85
F0.003130963650985879
s((I2
I0
tp86
g16
tp87
F0.49804655189681085
s(g61
g8
tp88
I0
s((I2
I-2
tp89
g5
tp90
F1.0579188151853859e-09
s(g4
g16
tp91
F1.0151502570414554e-06
s((I4
I-3
tp92
g8
tp93
F0.0007317737834815183
s(g92
g16
tp94
F0.00048180510546256243
s(g45
g8
tp95
F0.009798020896136737
s(g76
g8
tp96
I0
s((I3
I-1
tp97
g5
tp98
F0.04961099099282782
s((I0
I-1
tp99
g5
tp100
F0.4999838653412461
s(g41
g8
tp101
F0.2926307422450891
s(g84
g16
tp102
F0.004368284571005634
s((I4
I-2
tp103
g16
tp104
F0.0006389776446746244
s(g31
g16
tp105
F5.359627690707282e-06
s((I3
I0
tp106
g8
tp107
F0.022373954630755928
s(g89
g16
tp108
F0.028170174937297076
s((I1
I2
tp109
g8
tp110
F0.07991302612479767
s((I1
I-1
tp111
g8
tp112
F0.5106893670932415
s(g66
g16
tp113
F2.279015544408512e-05
s(g39
g8
tp114
F0.0017327141995572878
s(g50
g5
tp115
F0.0012937387799323808
s(g39
g16
tp116
F0.002733152901041012
s(g111
g5
tp117
F1.6430995432282823e-05
s(g72
g8
tp118
F0.00026723474665010306
s(g64
g5
tp119
F0.012897436521717529
s((I5
I-2
tp120
g16
tp121
F0.00023180008361122664
s(g86
g8
tp122
F0.17008098167835925
s(g20
g5
tp123
F0.001269425546384317
s(g33
g16
tp124
F1.5997187141325018e-06
s((I5
I3
tp125
g16
tp126
F6.695921148169509e-05
s(g99
g16
tp127
I0
s(g99
g8
tp128
I0
s(g4
g8
tp129
F1.4981364335015035e-95
s(g7
g5
tp130
F0.12788832694643987
s(g111
g16
tp131
F0.8066497555533668
s((I2
I2
tp132
g16
tp133
F0.07786071977356827
s(g70
g16
tp134
F1.1719353174670921
s((I5
I-4
tp135
g5
tp136
F7.166551664244528e-06
s(g48
g16
tp137
F0.0047857370504633
s(g31
g5
tp138
F6.437430683669207e-05
s(g33
g5
tp139
F0.004196872352503484
s(g92
g5
tp140
F0.00032307925069934316
s(g74
g8
tp141
F0.040175115559131
s((I1
I-2
tp142
g5
tp143
F0.00015795923980732753
s(g48
g8
tp144
F0.0018501503450054965
s(g125
g5
tp145
F6.613100186235839e-05
s(g132
g5
tp146
F0.21214445820284758
s((I0
I0
tp147
g8
tp148
I0
s(g109
g5
tp149
F0.5808178909597183
s(g52
g5
tp150
I0
s(g52
g8
tp151
I0
s(g103
g8
tp152
F0.0039631702894476735
s(g70
g8
tp153
F0.38579495144324255
s(g59
g16
tp154
F4.05612234521953e-05
s(g20
g16
tp155
F0.00047520356380473136
s(g37
g8
tp156
F0.024342742645613882
s(g79
g16
tp157
F2.7292420658340303e-05
s(g86
g5
tp158
F0.09768695328817334
s(g66
g8
tp159
F7.43110240587338e-06
s(g74
g5
tp160
F0.008852813064669666
s(g120
g5
tp161
F6.580554963662576e-05
s(g64
g8
tp162
F0.004552324834812751
s((I2
I3
tp163
g16
tp164
F0.007974591546606374
s(g7
g16
tp165
F0.031027269830446957
s((I5
I0
tp166
g16
tp167
F0.0002468404794127529
s(g142
g8
tp168
F0.125005392817935
s(g35
g16
tp169
F0.000771730721998248
s(g142
g16
tp170
F0.00017561875000816847
s(g163
g8
tp171
F0.001170775466248915
s(g26
g5
tp172
F0.001036620991806406
s(g120
g8
tp173
F0.0006411827199057495
s(g10
g16
tp174
F0.38005116877572687
s(g125
g8
tp175
F3.769963002176711e-05
s(g79
g8
tp176
F9.022320072773492e-05
s(g97
g16
tp177
F0.05562993735323234
s(g37
g16
tp178
F0.03317550831191015
s(g35
g5
tp179
F0.0007143330641913868
s(g45
g5
tp180
F0.03469099515952439
s(g72
g16
tp181
F0.0008457439984475699
s(g103
g5
tp182
F0.0004933677458978354
s(g26
g16
tp183
F0.00010043462047696703
s(g68
g5
tp184
F0.026356618690376237
s(g14
g5
tp185
I0
s(g147
g16
tp186
I0
s(g24
g16
tp187
F0.0006328850480041144
s(g135
g16
tp188
F1.105429575052089e-75
s(g61
g5
tp189
F0.49922823571993374
s(g59
g5
tp190
F8.525376965620513e-05
s(g89
g8
tp191
F0.16804729880928906
s(g97
g8
tp192
F0.05174305753950821
s(g43
g5
tp193
F0.00273739616678747
s(g10
g8
tp194
F0.08067606268023672
s(g14
g16
tp195
I0
s(g109
g16
tp196
F0.0600650949174624
s(g106
g5
tp197
F0.04870216123102548
s(g43
g8
tp198
F0.004220530776212121
s(g163
g5
tp199
F0.06218783572262473
s(g106
g16
tp200
F0.18107875144737548
s(g132
g8
tp201
F0.024088281670054612
s(g166
g8
tp202
F0.0003251981381187715
s(g76
g5
tp203
F0.6249809371442803
s(g28
g16
tp204
F0.0015470042631937641
s(g166
g5
tp205
F0.0036827048324004174
s(g28
g8
tp206
F0.0006210609461356038
s(g68
g16
tp207
F0.2157820361852377
s(g135
g8
tp208
F4.421718300208356e-75
s(g84
g5
tp209
F0.03317451344463726
s(g147
g5
tp210
I0
stp211
Rp212
.