ccopy_reg
_reconstructor
p0
(cutil
Counter
p1
c__builtin__
dict
p2
(dp3
((I2
I-3
tp4
S'R'
p5
tp6
F0.42144807230655396
s((I7
I5
tp7
S'R'
p8
tp9
F0.02529402631110455
s((I3
I-5
tp10
g8
tp11
F0.035393478254580626
s((I2
I1
tp12
g5
tp13
F1.004107944514973
s((I1
I4
tp14
S'L'
p15
tp16
F0.5471613381026419
s((I7
I-1
tp17
S'G'
p18
tp19
F0.19112157984624503
s((I1
I-4
tp20
g18
tp21
I0
s((I2
I5
tp22
g15
tp23
F0.030350945576906867
s((I8
I-5
tp24
g18
tp25
F0.002885180913568466
s((I6
I5
tp26
S'L'
p27
tp28
F0.010765077530222211
s((I5
I-5
tp29
g8
tp30
F0.026378057898495375
s((I9
I0
tp31
g18
tp32
F0.046587195309308965
s((I4
I6
tp33
S'G'
p34
tp35
F0.008794254799143924
s((I8
I4
tp36
g8
tp37
F0.02824860489062471
s((I7
I6
tp38
g27
tp39
F0.005134852205171086
s((I1
I3
tp40
g15
tp41
F0.875
s((I7
I-3
tp42
g8
tp43
F0.020785695172672043
s((I5
I2
tp44
g34
tp45
F0.2674643143977206
s((I2
I4
tp46
g15
tp47
F0.2203720880219956
s((I7
I-6
tp48
g27
tp49
F0.012298602912542776
s((I1
I5
tp50
g15
tp51
F0.5781970578735508
s((I3
I-6
tp52
g18
tp53
F0.013536140607960379
s((I3
I4
tp54
g5
tp55
F0.5400674065259004
s((I1
I1
tp56
g34
tp57
F0.011240637003535097
s((I9
I-5
tp58
g27
tp59
F0.00472163348846036
s(g14
g5
tp60
I0
s((I6
I4
tp61
g27
tp62
F0.020047228601062016
s((I9
I5
tp63
g8
tp64
F0.005011317186418306
s((I7
I0
tp65
g27
tp66
F0.06495041607956994
s((I2
I-5
tp67
g15
tp68
F0.9694675937839611
s(g61
g8
tp69
F0.11546457250398766
s((I3
I-4
tp70
g18
tp71
F0.06994989953145306
s((I6
I-2
tp72
g5
tp73
F0.11557550747919082
s((I9
I2
tp74
g18
tp75
F0.0151701703675715
s(g24
g27
tp76
F0.01649762976639535
s((I6
I-4
tp77
g5
tp78
F0.02290259865104055
s((I8
I0
tp79
g8
tp80
F0.033566235269879764
s((I6
I-3
tp81
g8
tp82
F0.04743022654900132
s((I4
I-5
tp83
g27
tp84
F0.11766657852888364
s((I5
I5
tp85
g8
tp86
F0.08154420636854952
s((I3
I6
tp87
g5
tp88
F0.10050438104743095
s((I3
I-2
tp89
g5
tp90
F0.28356817687476277
s((I7
I-2
tp91
g34
tp92
F0.11798749017998421
s((I8
I-6
tp93
g27
tp94
F0.0037807661835380737
s((I9
I-3
tp95
g27
tp96
F0.01314042581029175
s((I1
I0
tp97
g5
tp98
I0
s((I5
I-2
tp99
g8
tp100
F0.11213612817211727
s((I1
I6
tp101
g15
tp102
F0.6134421080756258
s((I3
I5
tp103
g34
tp104
F0.02360851019242905
s((I4
I5
tp105
g15
tp106
F0.039160153554842744
s((I1
I-5
tp107
g34
tp108
I0
s((I6
I-1
tp109
g18
tp110
F0.22948565194972137
s((I4
I-6
tp111
g27
tp112
F0.05308540717570799
s((I1
I-6
tp113
g34
tp114
I0
s(g52
g8
tp115
F0.023591754125515084
s((I9
I6
tp116
g8
tp117
F0.0022412869439691627
s((I5
I-6
tp118
g27
tp119
F0.035546552318471994
s(g36
g18
tp120
F0.008984938963580456
s(g50
g5
tp121
I0
s(g83
g8
tp122
F0.029709887984316972
s((I4
I-3
tp123
g27
tp124
F0.2823010072063018
s(g33
g5
tp125
F0.03637466787032688
s(g123
g18
tp126
F0.19949195970209793
s((I3
I2
tp127
g15
tp128
F0.1724158434466211
s(g10
g27
tp129
F0.10989156357939316
s(g67
g5
tp130
F0.08749407556100211
s(g29
g27
tp131
F0.08476518119557319
s(g79
g18
tp132
F0.11639424980735606
s(g56
g15
tp133
I0
s((I3
I0
tp134
g15
tp135
F0.43333527656122617
s(g7
g18
tp136
F0.004636604865735947
s(g48
g18
tp137
F0.0027654525965722073
s((I9
I1
tp138
g27
tp139
F0.006703979656135631
s((I1
I-1
tp140
g15
tp141
I0
s((I8
I3
tp142
g27
tp143
F0.014715755684457274
s((I7
I3
tp144
g18
tp145
F0.048233811132155045
s((I4
I-4
tp146
g18
tp147
F0.05062328857188019
s((I6
I0
tp148
g8
tp149
F0.13247310775937074
s(g54
g15
tp150
F0.12934161371176842
s(g54
g34
tp151
F0.12249720283046361
s((I2
I-6
tp152
g34
tp153
F0.014244589047942798
s(g95
g8
tp154
F0.004581549814307697
s(g111
g18
tp155
F0.007860761912674595
s(g72
g34
tp156
F0.19232561658767544
s(g85
g27
tp157
F0.024890037052756622
s(g42
g18
tp158
F0.03899444176455154
s((I1
I-2
tp159
g34
tp160
I0
s((I6
I6
tp161
g8
tp162
F0.02333853128436267
s(g29
g18
tp163
F0.021516770964370668
s((I4
I4
tp164
g8
tp165
F0.21484663032578993
s((I7
I-5
tp166
g27
tp167
F0.027619002268965624
s((I6
I1
tp168
g34
tp169
F0.3248479109479914
s((I8
I-2
tp170
g34
tp171
F0.053777567746397
s((I3
I3
tp172
g34
tp173
F0.4790066080638822
s(g4
g15
tp174
F1.2827597786758207
s(g144
g8
tp175
F0.12881249287876187
s(g97
g34
tp176
I0
s((I5
I-4
tp177
g5
tp178
F0.04633876436049099
s((I4
I-1
tp179
g18
tp180
F0.513210248756145
s(g109
g27
tp181
F0.1595504173534428
s(g46
g5
tp182
F1.5009163626611044
s(g123
g8
tp183
F0.1052086259781688
s(g74
g8
tp184
F0.01894386768117404
s(g140
g5
tp185
I0
s((I5
I3
tp186
g8
tp187
F0.2061421193173315
s(g116
g27
tp188
F0.0009645022225213193
s(g22
g5
tp189
F1.023382860301346
s(g116
g18
tp190
F0.0010403230360307146
s((I2
I2
tp191
g5
tp192
F1.0976560392972998
s((I6
I2
tp193
g5
tp194
F0.14316104963330464
s((I9
I4
tp195
g27
tp196
F0.0020731276912056176
s((I2
I0
tp197
g15
tp198
F0.6214266502463863
s(g195
g8
tp199
F0.010059150830598955
s((I5
I6
tp200
g8
tp201
F0.04107798528691392
s(g58
g8
tp202
F0.0013772744592727218
s(g7
g27
tp203
F0.008267315480624454
s(g97
g15
tp204
I0
s(g107
g5
tp205
F0.011407359304459493
s(g146
g27
tp206
F0.2400900256769295
s((I5
I-1
tp207
g8
tp208
F0.1876820780960796
s((I2
I3
tp209
g34
tp210
F0.39112458619592627
s((I5
I0
tp211
g34
tp212
F0.6244851669838621
s((I7
I2
tp213
g8
tp214
F0.11784562687665395
s(g52
g27
tp215
F0.048914882202103625
s(g24
g8
tp216
F0.0027657082682843136
s(g140
g34
tp217
I0
s(g209
g15
tp218
F0.4944229307494921
s(g148
g27
tp219
F0.10294602004023465
s(g81
g18
tp220
F0.09359501889124795
s(g99
g27
tp221
F0.34284354233782877
s((I8
I6
tp222
g8
tp223
F0.008018626197286698
s((I4
I0
tp224
g34
tp225
F1.300751702057132
s(g12
g34
tp226
F1.2908642010547746
s(g105
g5
tp227
F0.09360958803947529
s((I5
I-3
tp228
g15
tp229
F0.3003733554933085
s((I8
I1
tp230
g34
tp231
F0.07323594845164662
s(g89
g34
tp232
F1.2976455405487326
s(g159
g5
tp233
I0
s((I3
I-3
tp234
g8
tp235
F0.15903203647909311
s(g170
g5
tp236
F0.028343008950349396
s(g42
g27
tp237
F0.10424675497396682
s(g99
g18
tp238
F0.2525063395823846
s((I4
I-2
tp239
g5
tp240
F0.14345472565193285
s(g38
g8
tp241
F0.01198839970708538
s((I8
I-3
tp242
g18
tp243
F0.049317552248204624
s(g105
g34
tp244
F0.0193234322194496
s(g67
g34
tp245
F0.027702634553447784
s((I9
I-1
tp246
g15
tp247
F0.012049080962157906
s(g89
g15
tp248
F0.6476539605431911
s(g142
g8
tp249
F0.03957696754526147
s((I7
I4
tp250
g18
tp251
F0.027630732130586914
s(g138
g18
tp252
F0.014591568715481368
s((I7
I-4
tp253
g18
tp254
F0.02643345381020066
s(g12
g15
tp255
F0.6234786333925997
s((I2
I-4
tp256
g8
tp257
F0.22862108730097766
s((I1
I2
tp258
g34
tp259
I0
s(g134
g5
tp260
F0.3583569564272541
s((I8
I-1
tp261
g8
tp262
F0.027789773745617377
s(g17
g8
tp263
F0.06496977380118446
s((I2
I6
tp264
g5
tp265
F0.18683505651284477
s(g209
g5
tp266
F0.8747671411303952
s(g134
g34
tp267
F1.3335147026421157
s(g191
g15
tp268
F1.2235697116135562
s((I8
I5
tp269
g8
tp270
F0.016420240909335415
s(g10
g18
tp271
F0.026386715335511925
s(g85
g18
tp272
F0.02647552510785082
s((I7
I1
tp273
g27
tp274
F0.05658943811024374
s((I4
I2
tp275
g34
tp276
F0.3735504328761096
s(g211
g5
tp277
F0.22820553182704964
s(g275
g15
tp278
F0.17494100052145367
s(g166
g18
tp279
F0.007346376782708654
s(g50
g34
tp280
I0
s(g193
g34
tp281
F0.19834370282791858
s((I8
I2
tp282
g18
tp283
F0.055873045294935905
s(g103
g5
tp284
F0.2048044451876125
s(g63
g18
tp285
F0.0019959277949401608
s(g282
g27
tp286
F0.019068898159394575
s((I9
I-4
tp287
g18
tp288
F0.002211640603994844
s(g63
g27
tp289
F0.0010585146428059113
s(g103
g15
tp290
F0.03043129089706471
s(g101
g5
tp291
F0.13539137873399165
s(g261
g18
tp292
F0.09202354203161336
s((I8
I-4
tp293
g27
tp294
F0.03903658621885641
s(g164
g27
tp295
F0.048443715300421825
s(g70
g27
tp296
F0.36290305282482566
s((I4
I3
tp297
g15
tp298
F0.1377403386106894
s((I5
I1
tp299
g27
tp300
F0.19443781650615488
s(g273
g18
tp301
F0.14720078988196106
s(g275
g5
tp302
F0.4110426345906334
s(g250
g8
tp303
F0.07508888057041654
s(g297
g5
tp304
F0.44598753511315775
s((I5
I4
tp305
g27
tp306
F0.04494541456772762
s(g36
g27
tp307
F0.006647511045410138
s(g118
g8
tp308
F0.0099095185819073
s(g234
g27
tp309
F0.5483744407128139
s((I3
I1
tp310
g5
tp311
F0.6463291912256621
s((I9
I3
tp312
g27
tp313
F0.0038792276527788217
s(g253
g8
tp314
F0.014838599608480635
s(g127
g34
tp315
F1.2308608249124227
s(g200
g27
tp316
F0.01021830283062656
s(g65
g8
tp317
F0.08169915871079453
s(g179
g8
tp318
F0.21152001484112515
s(g256
g18
tp319
F0.06679965048057868
s((I1
I-3
tp320
g34
tp321
I0
s(g256
g27
tp322
F0.6436923808236693
s(g138
g8
tp323
F0.01571390753601656
s(g320
g15
tp324
F0.7528518398261149
s((I6
I-5
tp325
g27
tp326
F0.07023267399866615
s(g44
g15
tp327
F0.12938181309557945
s(g293
g18
tp328
F0.013482621138707542
s(g142
g18
tp329
F0.04962803416453025
s(g113
g15
tp330
I0
s(g87
g15
tp331
F0.02153097717482151
s(g56
g5
tp332
I0
s(g152
g5
tp333
F0.02265786447620456
s(g168
g15
tp334
F0.11572358357860724
s((I6
I-6
tp335
g27
tp336
F0.020531901713110447
s(g230
g5
tp337
F0.03293345900832764
s(g152
g15
tp338
F0.2472727654369984
s(g146
g8
tp339
F0.05122591327143662
s(g269
g27
tp340
F0.004294409950287133
s((I2
I-1
tp341
g15
tp342
F0.8042699211849619
s(g269
g18
tp343
F0.0047429332405069784
s(g107
g15
tp344
I0
s((I9
I-2
tp345
g27
tp346
F0.017843441988166585
s(g91
g15
tp347
F0.10083750402851582
s(g111
g8
tp348
F0.01358060477880987
s(g31
g8
tp349
F0.009514762053872217
s(g65
g18
tp350
F0.22706152046047118
s(g20
g27
tp351
I0
s(g228
g5
tp352
F0.05598296642355324
s(g320
g5
tp353
I0
s(g20
g8
tp354
F1.0255192653612457
s(g193
g15
tp355
F0.11384281397687541
s((I4
I1
tp356
g15
tp357
F0.28055866426587406
s(g250
g27
tp358
F0.011410623301017272
s((I2
I-2
tp359
g5
tp360
F0.630872276270618
s(g213
g18
tp361
F0.07781509552855642
s(g48
g8
tp362
F0.001626420908398402
s(g4
g34
tp363
F0.6300518472169189
s(g101
g34
tp364
F0.016780229862510113
s(g58
g18
tp365
F0.002684997466956025
s(g224
g5
tp366
F0.24140822819474633
s(g26
g8
tp367
F0.05695363771402269
s(g109
g8
tp368
F0.09264603417174909
s(g356
g34
tp369
F0.8161214911912817
s(g239
g34
tp370
F0.3406100354354781
s(g305
g18
tp371
F0.03231796973537286
s(g264
g15
tp372
F0.021996978063037652
s(g359
g34
tp373
F1.0242495834855636
s(g258
g15
tp374
F0.5
s(g72
g15
tp375
F0.28254041003106495
s(g195
g18
tp376
F0.0035916930638602955
s(g305
g8
tp377
F0.2148041424894634
s(g22
g34
tp378
F0.02688984860225014
s((I6
I3
tp379
g27
tp380
F0.04287856519230486
s(g213
g27
tp381
F0.05439918480518355
s(g26
g18
tp382
F0.00926714462375761
s(g379
g18
tp383
F0.11620548501367453
s(g197
g34
tp384
F1.268665270668549
s(g207
g27
tp385
F0.2768916089165606
s(g335
g8
tp386
F0.006004673042282003
s(g246
g34
tp387
F0.030787240161342273
s(g172
g5
tp388
F0.5929299908978594
s(g207
g18
tp389
F0.5480512235711079
s(g345
g18
tp390
F0.009832267778074255
s(g87
g34
tp391
F0.013455380046326765
s(g91
g5
tp392
F0.046791248177878025
s(g118
g18
tp393
F0.003882768549706786
s(g46
g34
tp394
F0.04829497833876867
s(g159
g15
tp395
F0.7971613381026419
s(g186
g18
tp396
F0.11520669609739978
s(g144
g27
tp397
F0.026588969105365852
s((I9
I-6
tp398
g27
tp399
F0.002245478024285658
s(g17
g27
tp400
F0.11971229764825567
s(g168
g5
tp401
F0.2216684946116515
s(g398
g18
tp402
F0.0009708759168865621
s(g61
g18
tp403
F0.03409900170520351
s(g40
g5
tp404
I0
s(g242
g8
tp405
F0.013161173415966936
s(g191
g34
tp406
F1.186728854788857
s(g312
g8
tp407
F0.013885787555770954
s(g74
g27
tp408
F0.005577626686906699
s(g161
g27
tp409
F0.007302466302717965
s(g33
g15
tp410
F0.01261889634575764
s((I3
I-1
tp411
g27
tp412
F0.6438599456915017
s((I8
I-1
tp413
g27
tp414
F0.05430149824823652
s(g93
g18
tp415
F0.0010141052971283809
s(g95
g18
tp416
F0.00992993522675276
s(g258
g5
tp417
I0
s(g264
g34
tp418
F0.013841111790745899
s(g222
g18
tp419
F0.0011524306826366005
s(g287
g27
tp420
F0.008238631297354746
s(g148
g18
tp421
F0.3755206293962965
s(g222
g27
tp422
F0.0013828345832540422
s(g239
g15
tp423
F0.3549821904536432
s(g345
g8
tp424
F0.010435440152696835
s(g170
g15
tp425
F0.07641984642344948
s(g325
g8
tp426
F0.015817184376730898
s(g164
g18
tp427
F0.034586393883355264
s(g310
g15
tp428
F0.3714451104174428
s(g228
g34
tp429
F0.13997092166389857
s(g197
g5
tp430
F0.6842612833889776
s(g230
g15
tp431
F0.03658349676923654
s(g93
g8
tp432
F0.0010301103480408313
s(g411
g8
tp433
F0.35167522902125803
s(g83
g18
tp434
F0.018557974057059688
s(g161
g18
tp435
F0.004618149652706705
s(g172
g15
tp436
F0.19197794334746132
s(g411
g18
tp437
F1.495028994485985
s(g113
g5
tp438
F0.07647772748136877
s(g40
g34
tp439
I0
s(g200
g18
tp440
F0.005655978203408636
s(g234
g18
tp441
F0.365757980217146
s(g312
g18
tp442
F0.006891825941151841
s(g79
g27
tp443
F0.03214963832846372
s(g242
g27
tp444
F0.05863845131348441
s(g293
g8
tp445
F0.007037128768387295
s(g299
g8
tp446
F0.2582701003232898
s(g287
g8
tp447
F0.003036572748536191
s(g325
g18
tp448
F0.009076046196955687
s(g398
g8
tp449
F0.0007958469308104948
s(g282
g8
tp450
F0.0808410158241489
s(g31
g27
tp451
F0.00881836617417665
s(g186
g27
tp452
F0.07797407884648175
s(g253
g27
tp453
F0.05164340179569131
s(g166
g8
tp454
F0.007655029464675419
s(g310
g34
tp455
F1.4213245924724827
s(g127
g5
tp456
F0.5329249182408182
s(g299
g18
tp457
F0.4355359216449647
s(g335
g18
tp458
F0.005476030202650443
s(g341
g5
tp459
F0.6290645469142712
s(g273
g8
tp460
F0.07937435624554867
s(g246
g5
tp461
F0.011293461678526542
s(g70
g8
tp462
F0.07160823838888287
s(g297
g34
tp463
F0.2871868815127392
s(g379
g8
tp464
F0.2739471968998106
s(g177
g34
tp465
F0.04471263198391294
s(g77
g34
tp466
F0.027134165075484187
s(g44
g5
tp467
F0.2658728207272849
s(g359
g15
tp468
F0.8026334273320099
s(g77
g15
tp469
F0.1170641213567841
s(g14
g34
tp470
F0.006214537109172613
s(g224
g15
tp471
F0.5505967848515441
s(g211
g15
tp472
F0.19871998666022236
s(g38
g18
tp473
F0.0027680236249491307
s(g341
g34
tp474
F1.0323470928140894
s(g81
g27
tp475
F0.2018121810014179
s(g177
g15
tp476
F0.15450747311774418
s(g356
g5
tp477
F0.2721879454842992
s(g179
g27
tp478
F0.35746686678842865
stp479
Rp480
.