ccopy_reg
_reconstructor
p0
(cutil
Counter
p1
c__builtin__
dict
p2
(dp3
((I2
I-3
tp4
S'R'
p5
tp6
F0.0
s((I9
I-2
tp7
g5
tp8
F0.0
s((I6
I2
tp9
S'G'
p10
tp11
F0.0
s((I1
I3
tp12
S'L'
p13
tp14
F-0.5
s((I2
I1
tp15
g5
tp16
F-0.993671875
s((I7
I-2
tp17
g5
tp18
F0.0
s((I8
I2
tp19
g13
tp20
F0.0
s((I1
I4
tp21
g13
tp22
F-0.25
s((I9
I-4
tp23
g10
tp24
F0.0
s(g17
g10
tp25
F0.0
s((I1
I-4
tp26
g10
tp27
F0.0
s((I8
I-2
tp28
g10
tp29
F0.0
s((I8
I-4
tp30
g13
tp31
F0.0
s((I4
I4
tp32
g13
tp33
F0.0
s((I3
I-4
tp34
g13
tp35
F0.0
s((I9
I0
tp36
g10
tp37
F0.0
s((I4
I3
tp38
g13
tp39
F0.0
s((I7
I1
tp40
g5
tp41
F0.0
s((I8
I4
tp42
g5
tp43
F0.0
s(g40
g10
tp44
F0.0
s((I4
I2
tp45
g5
tp46
F0.0
s((I7
I-3
tp47
g5
tp48
F0.0
s(g38
g5
tp49
F0.0
s(g19
g10
tp50
F0.0
s((I5
I4
tp51
g13
tp52
F0.0
s(g42
g13
tp53
F0.0
s((I2
I4
tp54
g13
tp55
F0.0
s((I3
I-3
tp56
g13
tp57
F0.0
s((I3
I1
tp58
g5
tp59
F-0.3241787146222763
s((I3
I4
tp60
g5
tp61
F0.0
s((I9
I3
tp62
g13
tp63
F0.0
s((I2
I3
tp64
g13
tp65
F0.0
s((I7
I2
tp66
g5
tp67
F0.0
s((I7
I-4
tp68
g5
tp69
F0.0
s((I3
I2
tp70
g10
tp71
F0.0
s((I7
I0
tp72
g5
tp73
F0.0
s((I4
I-2
tp74
g5
tp75
F0.0
s((I2
I-4
tp76
g10
tp77
F0.0
s((I6
I4
tp78
g13
tp79
F0.0
s((I1
I-3
tp80
g10
tp81
F0.0
s(g76
g13
tp82
F0.0
s((I9
I1
tp83
g5
tp84
F0.0
s(g72
g13
tp85
F0.0
s(g80
g13
tp86
F-0.875
s(g78
g5
tp87
F0.0
s(g34
g10
tp88
F0.0
s((I6
I-2
tp89
g5
tp90
F0.0
s((I5
I2
tp91
g13
tp92
F0.0
s((I9
I2
tp93
g10
tp94
F0.0
s(g30
g10
tp95
F0.0
s((I6
I-4
tp96
g5
tp97
F0.0
s((I8
I0
tp98
g5
tp99
F0.0
s((I6
I-3
tp100
g5
tp101
F0.0
s((I8
I3
tp102
g10
tp103
F0.0
s((I1
I1
tp104
g5
tp105
F-0.9875
s((I6
I1
tp106
g13
tp107
F0.0
s((I3
I-1
tp108
g5
tp109
F0.0
s((I8
I1
tp110
g5
tp111
F0.0
s((I7
I-1
tp112
g10
tp113
F0.0
s((I4
I-4
tp114
g5
tp115
F0.0
s((I9
I-3
tp116
g13
tp117
F0.0
s((I2
I-2
tp118
g13
tp119
F-0.49360454546842303
s((I1
I0
tp120
g5
tp121
F-0.875
s((I5
I-2
tp122
g5
tp123
F0.0
s(g12
g5
tp124
F-0.5
s(g7
g13
tp125
F0.0
s(g17
g13
tp126
F0.0
s(g36
g5
tp127
F0.0
s(g72
g10
tp128
F0.0
s(g26
g13
tp129
F-0.75
s((I5
I-3
tp130
g5
tp131
F0.0
s(g80
g5
tp132
F-0.875
s((I3
I3
tp133
g13
tp134
F0.0
s(g26
g5
tp135
F-0.3125
s(g89
g10
tp136
F0.0
s(g9
g13
tp137
F0.0
s((I4
I1
tp138
g13
tp139
F0.0
s((I3
I0
tp140
g13
tp141
F-0.4354718504677294
s((I7
I4
tp142
g13
tp143
F0.0
s(g118
g5
tp144
F-0.001953125
s(g66
g10
tp145
F0.0
s(g42
g10
tp146
F0.0
s(g4
g10
tp147
F0.0
s((I4
I-3
tp148
g13
tp149
F0.0
s(g148
g10
tp150
F0.0
s(g70
g13
tp151
F0.0
s(g68
g10
tp152
F0.0
s(g21
g5
tp153
F-0.875
s((I6
I-1
tp154
g5
tp155
F0.0
s(g98
g10
tp156
F0.0
s(g64
g10
tp157
F0.0
s(g74
g10
tp158
F0.0
s(g51
g10
tp159
F0.0
s((I2
I0
tp160
g10
tp161
F-0.999999999998181
s((I2
I-1
tp162
g10
tp163
F-0.96484375
s((I1
I2
tp164
g13
tp165
F-0.75
s(g83
g13
tp166
F0.0
s((I1
I-2
tp167
g13
tp168
F-0.5
s(g102
g13
tp169
F0.0
s(g154
g13
tp170
F0.0
s((I7
I3
tp171
g10
tp172
F0.0
s(g114
g10
tp173
F0.0
s((I9
I4
tp174
g10
tp175
F0.0
s(g60
g13
tp176
F0.0
s(g51
g5
tp177
F0.0
s(g76
g5
tp178
F0.0
s((I6
I3
tp179
g13
tp180
F0.0
s(g60
g10
tp181
F0.0
s(g66
g13
tp182
F0.0
s(g133
g5
tp183
F0.0
s(g179
g10
tp184
F0.0
s(g116
g5
tp185
F0.0
s((I5
I-1
tp186
g13
tp187
F0.0
s(g47
g10
tp188
F0.0
s(g108
g10
tp189
F-0.28125
s(g122
g10
tp190
F0.0
s((I9
I-1
tp191
g10
tp192
F0.0
s(g140
g10
tp193
F-1.1299394607543944
s(g32
g5
tp194
F0.0
s(g54
g10
tp195
F0.0
s((I5
I3
tp196
g10
tp197
F0.0
s(g106
g10
tp198
F0.0
s((I8
I-1
tp199
g10
tp200
F0.0
s(g171
g13
tp201
F0.0
s((I6
I0
tp202
g5
tp203
F0.0
s(g112
g13
tp204
F0.0
s(g4
g13
tp205
F-0.515625
s(g171
g5
tp206
F0.0
s(g78
g10
tp207
F0.0
s((I3
I-2
tp208
g13
tp209
F-5.4931640625e-05
s((I8
I-3
tp210
g5
tp211
F0.0
s((I1
I-1
tp212
g10
tp213
F-0.0244140625
s((I2
I2
tp214
g10
tp215
F0.0
s(g120
g10
tp216
F-0.40069580078125
s((I5
I-4
tp217
g5
tp218
F0.0
s(g62
g5
tp219
F0.0
s((I4
I-1
tp220
g10
tp221
F-0.362109375
s(g89
g13
tp222
F0.0
s(g93
g13
tp223
F0.0
s(g54
g5
tp224
F0.0
s(g148
g5
tp225
F0.0
s(g93
g5
tp226
F0.0
s(g108
g13
tp227
F-0.5906674613084669
s(g212
g5
tp228
F-0.875
s(g196
g5
tp229
F0.0
s(g28
g13
tp230
F0.0
s(g162
g5
tp231
F-0.7669688463413221
s(g214
g5
tp232
F-0.125
s(g116
g10
tp233
F0.0
s(g9
g5
tp234
F0.0
s(g174
g13
tp235
F0.0
s(g164
g5
tp236
F-0.5
s(g45
g10
tp237
F0.0
s(g23
g13
tp238
F0.0
s(g174
g5
tp239
F0.0
s(g74
g13
tp240
F0.0
s(g191
g5
tp241
F0.0
s(g199
g13
tp242
F0.0
s(g120
g13
tp243
F-0.875
s(g15
g10
tp244
F-0.99609375
s(g91
g10
tp245
F0.0
s(g32
g10
tp246
F0.0
s(g58
g13
tp247
F0.0
s(g130
g10
tp248
F0.0
s(g208
g5
tp249
F0.0
s(g160
g5
tp250
F-1.305392214730673
s(g110
g13
tp251
F0.0
s(g118
g10
tp252
F0.0
s(g114
g13
tp253
F0.0
s(g133
g10
tp254
F0.0
s(g186
g5
tp255
F0.0
s(g154
g10
tp256
F0.0
s(g104
g13
tp257
F-0.75
s(g12
g10
tp258
F0.0
s((I5
I0
tp259
g10
tp260
F-0.017371822157478893
s(g212
g13
tp261
F-1.2125
s(g142
g5
tp262
F0.0
s(g167
g10
tp263
F0.0
s(g62
g10
tp264
F0.0
s(g98
g13
tp265
F0.0
s(g210
g13
tp266
F0.0
s(g30
g5
tp267
F0.0
s(g40
g13
tp268
F0.0
s(g199
g5
tp269
F0.0
s(g202
g13
tp270
F0.0
s(g100
g10
tp271
F0.0
s(g23
g5
tp272
F0.0
s(g122
g13
tp273
F0.0
s((I4
I0
tp274
g10
tp275
F-1.0272558593749999
s(g19
g5
tp276
F0.0
s(g56
g10
tp277
F0.0
s(g36
g13
tp278
F0.0
s(g196
g13
tp279
F0.0
s(g68
g13
tp280
F0.0
s(g130
g13
tp281
F0.0
s(g110
g10
tp282
F0.0
s(g208
g10
tp283
F0.0
s(g58
g10
tp284
F-0.671875
s(g167
g5
tp285
F-0.96875
s(g142
g10
tp286
F0.0
s(g28
g5
tp287
F0.0
s(g70
g5
tp288
F-0.3407268628540475
s(g47
g13
tp289
F0.0
s(g186
g10
tp290
F0.0
s(g104
g10
tp291
F-0.2656564712524414
s(g220
g5
tp292
F0.0
s((I5
I1
tp293
g10
tp294
F0.0
s(g138
g10
tp295
F-0.1752394580924573
s(g293
g13
tp296
F0.0
s(g210
g10
tp297
F0.0
s(g34
g5
tp298
F0.0
s(g38
g10
tp299
F0.0
s(g179
g5
tp300
F0.0
s(g217
g10
tp301
F0.0
s(g96
g10
tp302
F0.0
s(g91
g5
tp303
F0.0
s(g162
g13
tp304
F-1.1985253991762876
s(g191
g13
tp305
F0.0
s(g96
g13
tp306
F0.0
s(g102
g5
tp307
F0.0
s(g56
g5
tp308
F0.0
s(g83
g10
tp309
F0.0
s(g274
g5
tp310
F0.0
s(g15
g13
tp311
F-0.18762504135908495
s(g21
g10
tp312
F0.0
s(g164
g10
tp313
F0.0
s(g140
g5
tp314
F-0.035395078888101936
s(g274
g13
tp315
F0.0
s(g112
g5
tp316
F0.0
s(g64
g5
tp317
F-0.2734375
s(g160
g13
tp318
F-1.1270414161849147
s(g214
g13
tp319
F-0.064453125
s(g202
g10
tp320
F0.0
s(g259
g13
tp321
F0.0
s(g293
g5
tp322
F0.0
s(g106
g5
tp323
F0.0
s(g259
g5
tp324
F0.0
s(g45
g13
tp325
F0.0
s(g7
g10
tp326
F0.0
s(g100
g13
tp327
F0.0
s(g217
g13
tp328
F0.0
s(g138
g5
tp329
F-0.018576507568359376
s(g220
g13
tp330
F-0.09435234375000001
stp331
Rp332
.