ccopy_reg
_reconstructor
p0
(cutil
Counter
p1
c__builtin__
dict
p2
(dp3
((I6
I2
tp4
S'G'
p5
tp6
F0.0001396965825019665
s((I1
I3
tp7
S'L'
p8
tp9
I0
s((I8
I2
tp10
g5
tp11
I0
s((I7
I-1
tp12
S'R'
p13
tp14
F2.0926036239862188e-07
s(g10
g8
tp15
F8.000000000000007e-08
s((I7
I-2
tp16
g5
tp17
F2.4089192412177615e-07
s((I1
I-4
tp18
g5
tp19
I0
s((I8
I-2
tp20
g5
tp21
F0.0010063859545698607
s((I8
I-4
tp22
g8
tp23
F0.10155273521604427
s((I4
I4
tp24
g8
tp25
F4.718831815871948e-06
s((I3
I-4
tp26
g8
tp27
F4.214810084705232e-06
s((I4
I3
tp28
g8
tp29
F8.462375991371667e-07
s((I7
I1
tp30
g13
tp31
F3.835926312985497e-07
s((I8
I4
tp32
g13
tp33
F0.05413033052507897
s(g30
g5
tp34
F1.3430290733413403e-05
s((I6
I1
tp35
g5
tp36
F6.6690904521927516e-06
s((I7
I-3
tp37
g13
tp38
F0.0066771931462759
s(g28
g13
tp39
F1.315510205884192e-06
s((I2
I1
tp40
g13
tp41
I0
s((I5
I4
tp42
g8
tp43
F8.471074370669061e-05
s(g32
g8
tp44
F0.1372171489086786
s((I2
I4
tp45
g8
tp46
I0
s((I3
I-3
tp47
g8
tp48
I0
s((I3
I1
tp49
g13
tp50
F-4.0000000000000015e-06
s((I3
I4
tp51
g13
tp52
F1.3427773536271893e-06
s((I2
I3
tp53
g8
tp54
F1.3563912901414175e-07
s((I7
I-4
tp55
g13
tp56
F0.011180700845872232
s((I3
I2
tp57
g5
tp58
I0
s((I7
I0
tp59
g13
tp60
F1.8686603597329182e-06
s((I4
I-1
tp61
g13
tp62
F4.1818044411617303e-07
s((I2
I-4
tp63
g5
tp64
F1.691379764808999e-09
s((I6
I4
tp65
g8
tp66
F0.002206776028819509
s(g63
g8
tp67
F8.456898824044991e-08
s(g59
g8
tp68
F0.00013753901705011213
s(g65
g13
tp69
F0.0006810743178220371
s(g26
g5
tp70
I0
s((I6
I-1
tp71
g13
tp72
F0.00032318554999800984
s((I5
I2
tp73
g8
tp74
I0
s(g22
g5
tp75
F0.5826227523424804
s((I6
I-4
tp76
g13
tp77
F0.007936594394855853
s((I6
I-3
tp78
g13
tp79
F0.0030697770461273256
s((I8
I3
tp80
g5
tp81
F0.011865802270553638
s(g71
g5
tp82
F2.0378327701225676e-06
s(g35
g8
tp83
F9.613930776494856e-05
s((I3
I3
tp84
g5
tp85
I0
s(g12
g5
tp86
F4.0168301135825246e-05
s((I4
I-4
tp87
g13
tp88
F9.924654137208385e-05
s((I2
I-2
tp89
g8
tp90
F-0.010199999999999997
s((I5
I-1
tp91
g13
tp92
I0
s((I3
I-2
tp93
g5
tp94
I0
s(g12
g8
tp95
F7.037966126106542e-14
s(g59
g5
tp96
F5.643553568531712e-06
s(g18
g8
tp97
I0
s((I5
I-3
tp98
g13
tp99
F0.0008879193382171544
s(g18
g13
tp100
F3.3827595296179995e-11
s((I6
I-2
tp101
g5
tp102
F0.00018120233106964155
s(g4
g8
tp103
F0.0022852154686263644
s((I4
I1
tp104
g8
tp105
I0
s((I3
I0
tp106
g8
tp107
F-8.000000000000005e-08
s((I7
I4
tp108
g8
tp109
F0.022811374386638352
s(g89
g13
tp110
I0
s((I7
I2
tp111
g5
tp112
F3.200000000000004e-11
s(g32
g5
tp113
F0.05181915125256549
s((I4
I-3
tp114
g8
tp115
F1.0698014590854413e-14
s(g114
g5
tp116
F0.000136593338035165
s(g57
g8
tp117
I0
s(g55
g5
tp118
F0.019479327593693817
s(g101
g13
tp119
F0.001082926342806135
s(g61
g5
tp120
I0
s(g42
g5
tp121
F0.00010227788588690798
s((I2
I0
tp122
g5
tp123
I0
s((I5
I-2
tp124
g8
tp125
I0
s(g89
g5
tp126
I0
s(g111
g13
tp127
F0.0030499315170762135
s(g80
g8
tp128
F0.24957883705928602
s(g101
g8
tp129
F3.1745728245353955e-05
s((I7
I3
tp130
g5
tp131
F0.0011642645981359493
s(g87
g5
tp132
I0
s((I6
I0
tp133
g13
tp134
F3.0562999701355656e-05
s(g51
g8
tp135
F3.01419055303978e-08
s((I6
I3
tp136
g8
tp137
F0.0775124350224991
s(g51
g5
tp138
F6.028381106079558e-10
s(g111
g8
tp139
F0.008358384455907064
s(g136
g5
tp140
F0.000508588584651997
s(g91
g8
tp141
I0
s(g37
g5
tp142
F0.008698850864194512
s(g84
g13
tp143
F6.947807092513379e-09
s(g91
g5
tp144
F4.6623705650248655e-08
s(g122
g8
tp145
F-0.01
s(g24
g13
tp146
I0
s(g45
g5
tp147
F2.411352442431825e-13
s((I5
I3
tp148
g5
tp149
F5.364267810738447e-05
s((I4
I2
tp150
g13
tp151
F2.6591474920269197e-14
s((I8
I-1
tp152
g5
tp153
I0
s(g130
g8
tp154
F0.006198652603166202
s(g16
g8
tp155
F3.6096884260310303e-06
s(g130
g13
tp156
F0.002197763172284
s(g65
g5
tp157
F0.012679291882971604
s(g7
g13
tp158
I0
s((I8
I-3
tp159
g13
tp160
F0.06459118075299865
s((I2
I2
tp161
g5
tp162
I0
s((I5
I-4
tp163
g13
tp164
F4.1356990386828465e-05
s((I4
I-2
tp165
g5
tp166
F1.0810391770252822e-07
s(g71
g8
tp167
F5.491970370933649e-06
s(g42
g13
tp168
F4.853708239925109e-06
s(g45
g13
tp169
F2.7164883747652163e-09
s(g114
g13
tp170
F1.5523959337416232e-05
s((I3
I-1
tp171
g8
tp172
I0
s((I1
I-2
tp173
g13
tp174
I0
s(g20
g8
tp175
F6.914378697817869e-08
s(g35
g13
tp176
F5.36860205004576e-06
s((I2
I-1
tp177
g13
tp178
F-4.08e-06
s(g161
g13
tp179
F7.017356321580192e-21
s(g4
g13
tp180
F1.2082949100954669e-05
s(g133
g5
tp181
F4.893781858752374e-07
s(g165
g8
tp182
F1.711682334536707e-21
s(g152
g8
tp183
I0
s(g10
g13
tp184
I0
s(g73
g5
tp185
I0
s(g24
g5
tp186
F7.793611315744527e-05
s(g49
g8
tp187
F2.245554022905664e-29
s(g98
g5
tp188
F0.00048784204524724307
s(g93
g13
tp189
F1.204910115034285e-06
s(g122
g13
tp190
I0
s(g87
g8
tp191
F1.3693458676293666e-26
s(g171
g13
tp192
F2.409820230068571e-08
s(g124
g13
tp193
F0.0007293223153581781
s(g84
g8
tp194
F7.800093907114103e-08
s(g53
g5
tp195
I0
s(g7
g5
tp196
F4.822704884863652e-15
s((I5
I0
tp197
g5
tp198
F9.739800398443512e-12
s(g173
g8
tp199
F-0.4999999999999865
s(g108
g13
tp200
F0.04560842399114937
s(g173
g5
tp201
F6.765519059235999e-13
s(g159
g8
tp202
F0.009191040052870102
s(g22
g13
tp203
F0.1274260606685505
s(g30
g8
tp204
I0
s(g152
g13
tp205
F0.0023276241764543914
s(g133
g8
tp206
F1.9660507565699768e-05
s(g78
g5
tp207
F0.00015692822618123392
s(g148
g13
tp208
I0
s((I4
I0
tp209
g5
tp210
I0
s(g40
g5
tp211
F-0.4999999999999999
s(g47
g5
tp212
F4.925747457362447e-06
s(g148
g8
tp213
F4.95336224319212e-05
s(g55
g8
tp214
F0.005421728534708765
s(g98
g8
tp215
F1.9754812801988242e-05
s(g171
g5
tp216
I0
s(g49
g5
tp217
F5.613885057264157e-26
s(g108
g5
tp218
F0.05955539610249057
s(g20
g13
tp219
F0.020502529087230523
s(g57
g13
tp220
F1.122777011452832e-27
s(g37
g8
tp221
F2.2180176265355135e-07
s(g124
g5
tp222
F1.3505012066956338e-06
s(g165
g13
tp223
F2.8962986944592334e-05
s((I5
I1
tp224
g5
tp225
I0
s(g104
g5
tp226
F8.982216091622658e-33
s(g224
g8
tp227
F1.1724657497736905e-13
s(g159
g5
tp228
F0.01169020553632429
s(g26
g13
tp229
I0
s(g28
g5
tp230
F1.1975241043649817e-05
s(g136
g13
tp231
F0.0003304046048950872
s(g163
g5
tp232
F0.004990782197885347
s(g76
g5
tp233
F0.000874293497870051
s(g73
g13
tp234
F5.8623287488684515e-12
s(g177
g8
tp235
I0
s(g76
g8
tp236
F0.0010959773053319407
s(g93
g8
tp237
F7.011050842262369e-42
s(g80
g13
tp238
F1.6000000000000017e-09
s(g47
g13
tp239
F3.6768757032884667e-10
s(g209
g13
tp240
F2.1252258683220518e-08
s(g40
g8
tp241
F3.508678160790095e-19
s(g63
g13
tp242
I0
s(g106
g13
tp243
F4.819640460137144e-10
s(g209
g8
tp244
I0
s(g16
g13
tp245
F2.8567942261879163e-07
s(g53
g13
tp246
F8.771695401975235e-16
s(g106
g5
tp247
F-0.00020000000000000006
s(g161
g8
tp248
F1.7543390803950474e-17
s(g197
g8
tp249
I0
s(g224
g13
tp250
F2.9311643744342247e-10
s(g150
g5
tp251
F1.7018543948972302e-24
s(g197
g13
tp252
F4.601991297955909e-09
s(g150
g8
tp253
F1.7933172708100536e-06
s(g177
g5
tp254
F-0.5099999999999997
s(g78
g8
tp255
F0.00028924966546072905
s(g163
g8
tp256
F0.0002679850334453264
s(g104
g13
tp257
I0
s(g61
g8
tp258
I0
stp259
Rp260
.