ccopy_reg
_reconstructor
p0
(cutil
Counter
p1
c__builtin__
dict
p2
(dp3
((I2
I-3
tp4
S'R'
p5
tp6
F-1.1607842792028586
s((I1
I3
tp7
S'L'
p8
tp9
F-1.3385099595533243
s((I2
I1
tp10
g5
tp11
F-1.0026309866519116
s((I0
I1
tp12
g8
tp13
F-0.5882352936088378
s((I1
I4
tp14
g8
tp15
F-1.0075956233279861
s(g12
S'G'
p16
tp17
I0
s((I1
I-4
tp18
g16
tp19
F-1.0744542470864917
s((I4
I4
tp20
g8
tp21
F8.624981026321365e-06
s((I3
I-4
tp22
g8
tp23
F-1.0046408077545026
s((I4
I3
tp24
g8
tp25
F9.696045819055327e-06
s((I5
I1
tp26
g8
tp27
F0.00017352634070158098
s((I4
I2
tp28
g5
tp29
F-6.705279531760421e-05
s(g24
g5
tp30
F8.488049768160553e-06
s((I5
I4
tp31
g8
tp32
F6.608626259920873e-07
s((I2
I4
tp33
g8
tp34
F-1.3112092032055056
s((I0
I-3
tp35
g8
tp36
I0
s((I3
I-3
tp37
g8
tp38
F-1.3611391722487445
s((I3
I1
tp39
g5
tp40
F-1.8585463748770978
s((I3
I4
tp41
g5
tp42
F-0.9546303901286352
s((I2
I3
tp43
g8
tp44
F-1.1988420772274262
s((I4
I0
tp45
g16
tp46
F-0.23277377435986316
s((I3
I2
tp47
g16
tp48
F-1.4296662196674605
s(g22
g5
tp49
F-1.0963982883180754
s((I4
I-1
tp50
g5
tp51
F-0.08890786418361145
s((I2
I-4
tp52
g16
tp53
F-1.0174313697134747
s((I0
I-1
tp54
g16
tp55
F-0.5871453622103556
s((I1
I-3
tp56
g16
tp57
F-1.0233750399843216
s(g52
g8
tp58
F-0.9659317918393185
s(g56
g8
tp59
F-1.0063354152217894
s(g22
g16
tp60
F-0.5037959430367915
s((I5
I2
tp61
g8
tp62
F7.594627410314543e-06
s((I0
I3
tp63
g16
tp64
F-0.5882352907255858
s((I1
I1
tp65
g5
tp66
F-0.5441171782064501
s((I3
I-2
tp67
g5
tp68
F-1.3602251992483643
s((I4
I-4
tp69
g5
tp70
F4.978686301631166e-06
s((I2
I-1
tp71
g8
tp72
F-1.1483040529006794
s((I1
I0
tp73
g5
tp74
F-0.9856246998722245
s((I5
I-1
tp75
g5
tp76
F-0.0002990808267792821
s((I3
I-1
tp77
g16
tp78
F-1.7580348188016355
s((I0
I2
tp79
g16
tp80
F-0.5820610311067199
s(g18
g8
tp81
F-0.7095162282364588
s((I5
I-3
tp82
g5
tp83
F1.0585606915508516e-07
s(g12
g5
tp84
F-0.5882352941061988
s(g56
g5
tp85
F-0.587523241497224
s(g18
g5
tp86
F-1.00897897493557
s((I4
I1
tp87
g8
tp88
F8.865530978951846e-06
s((I2
I0
tp89
g16
tp90
F-0.9887681353253674
s(g63
g8
tp91
I0
s(g87
g16
tp92
F-0.0006540575411907114
s(g4
g16
tp93
F-1.1266244947259028
s((I4
I-3
tp94
g8
tp95
F2.563808747156344e-06
s(g94
g16
tp96
F2.633442169687359e-06
s(g47
g8
tp97
F-1.2620999578141654
s(g79
g8
tp98
F-0.5882144559799851
s(g43
g16
tp99
F-1.4048348367287458
s(g50
g16
tp100
F-0.026864311904582727
s(g31
g16
tp101
F4.736015345368801e-09
s((I3
I0
tp102
g8
tp103
F-1.8039930602665912
s(g71
g16
tp104
F-1.425988608975757
s((I1
I2
tp105
g8
tp106
F-1.2916948709247797
s((I1
I-1
tp107
g8
tp108
F-1.0002736627833009
s(g69
g16
tp109
F3.0736009823808506e-06
s(g41
g8
tp110
F-0.983015659835544
s(g14
g16
tp111
F-1.1922571812118403
s(g41
g16
tp112
F-0.25876397060110284
s(g107
g5
tp113
F-0.5882118926203918
s(g75
g8
tp114
F0.0007855598512310244
s(g67
g16
tp115
F-1.5047444734787176
s((I5
I-2
tp116
g16
tp117
F-6.913776638268997e-06
s(g89
g8
tp118
F-1.228931602339725
s(g20
g5
tp119
F9.33509531353118e-06
s(g33
g16
tp120
F-1.3450819610546954
s((I5
I3
tp121
g16
tp122
F3.8554148759498314e-07
s((I0
I-2
tp123
g16
tp124
F-0.606427434235469
s(g54
g8
tp125
I0
s(g4
g8
tp126
F-1.0792791682574332
s(g7
g5
tp127
F-1.476815913565542
s(g107
g16
tp128
F-0.8850695004601867
s((I2
I2
tp129
g16
tp130
F-0.8997731713078386
s(g73
g16
tp131
F-0.5882352941159298
s((I5
I-4
tp132
g5
tp133
F7.459397582005279e-08
s((I4
I-2
tp134
g16
tp135
F6.556445367318802e-06
s(g129
g8
tp136
F-0.7070080540322583
s(g31
g5
tp137
F1.1120297932280595e-08
s(g33
g5
tp138
F-1.5158186188536158
s(g94
g5
tp139
F2.5535889198170413e-06
s(g77
g8
tp140
F-1.8567216214690432
s((I1
I-2
tp141
g5
tp142
F-0.5880792841359458
s(g121
g5
tp143
F4.9655967195213064e-05
s(g71
g5
tp144
F-1.1418613659019907
s(g129
g5
tp145
F-1.0065776434351381
s(g67
g8
tp146
F-1.7858021925982306
s((I0
I0
tp147
g8
tp148
F-0.8823498154176604
s(g105
g5
tp149
F-1.0045336606523123
s(g123
g5
tp150
I0
s(g123
g8
tp151
I0
s(g134
g8
tp152
F-0.02027353418521368
s(g73
g8
tp153
F-0.9099248706238401
s(g61
g16
tp154
F1.4102599378919902e-06
s(g20
g16
tp155
F3.926370278121137e-06
s(g39
g8
tp156
F-1.6459976202282718
s(g82
g16
tp157
F9.286624104988769e-08
s((I0
I-4
tp158
g16
tp159
I0
s(g89
g5
tp160
F-0.8823491550628679
s(g69
g8
tp161
F3.1390649323782455e-06
s(g77
g5
tp162
F-1.689430319050508
s(g116
g5
tp163
F2.1517624111038162e-07
s((I3
I3
tp164
g8
tp165
F-1.0871282017664692
s(g35
g16
tp166
I0
s(g65
g8
tp167
F-0.7941072150557108
s(g7
g16
tp168
F-1.480712273993228
s((I5
I0
tp169
g16
tp170
F0.00040331048522681287
s(g141
g8
tp171
F-0.588071804331553
s(g37
g16
tp172
F-0.42509177526568137
s(g141
g16
tp173
F-0.5881284862245834
s(g65
g16
tp174
F-0.7830080585078404
s(g116
g8
tp175
F-0.0002932919328069652
s(g10
g16
tp176
F-1.012366049072699
s(g121
g8
tp177
F1.4344927784398345e-08
s(g82
g8
tp178
F1.0808761684934785e-07
s(g164
g5
tp179
F-1.3896212321616823
s(g39
g16
tp180
F-1.7847842622417402
s(g37
g5
tp181
F-1.2359534957503555
s(g47
g5
tp182
F-1.7515002361588012
s(g79
g5
tp183
F-0.5873091546660079
s(g134
g5
tp184
F6.616541782526416e-06
s(g26
g16
tp185
F0.00041031570315744613
s((I2
I-2
tp186
g5
tp187
F-1.5106197400442882
s(g14
g5
tp188
F-1.1985179569340496
s(g35
g5
tp189
F-0.5809690814023709
s(g147
g16
tp190
I0
s(g24
g16
tp191
F3.3479686470517434e-06
s(g132
g16
tp192
F6.52890670669267e-08
s(g63
g5
tp193
F-0.588096373199901
s(g61
g5
tp194
F0.0007254759061361908
s(g186
g8
tp195
F-1.4606911172049184
s(g164
g16
tp196
F-0.2163128629503765
s(g54
g5
tp197
I0
s(g45
g5
tp198
F-0.010336447346176942
s(g10
g8
tp199
F-1.0039278159114549
s(g52
g5
tp200
F-1.150566280247891
s(g105
g16
tp201
F-1.2248809946735304
s(g102
g5
tp202
F-1.8001773107048304
s(g45
g8
tp203
F-0.050940228941319984
s(g43
g5
tp204
F-1.3600382216960087
s(g102
g16
tp205
F-1.8136181129357958
s(g75
g16
tp206
F-1.99311653131472e-05
s(g169
g8
tp207
F0.011261317377052873
s(g147
g5
tp208
I0
s(g158
g5
tp209
F-0.5397938760158063
s(g26
g5
tp210
F0.0734821174753846
s(g28
g16
tp211
F-0.0003427440528143858
s(g169
g5
tp212
F0.0001626945308405673
s(g28
g8
tp213
F5.1133730887655406e-06
s(g158
g8
tp214
I0
s(g87
g5
tp215
F-0.2316801171666077
s(g132
g8
tp216
F9.812656566507261e-08
s(g186
g16
tp217
F-1.5342959158120772
s(g50
g8
tp218
F-0.8974713384122492
stp219
Rp220
.