ccopy_reg
_reconstructor
p0
(cutil
Counter
p1
c__builtin__
dict
p2
(dp3
S'R'
p4
g0
(g1
g2
(dp5
S'angle'
p6
cnumpy.core.multiarray
scalar
p7
(cnumpy
dtype
p8
(S'f8'
p9
I0
I1
tp10
Rp11
(I3
S'<'
p12
NNNI-1
I-1
I0
tp13
bS'\xaf\x8c\xd6. \xaa\xa2?'
p14
tp15
Rp16
sS'bias'
p17
g7
(g11
S'\xf1,e\xe7S#\xc7?'
p18
tp19
Rp20
sS'dist'
p21
g7
(g11
S'\xb3\xf8\x04\xadS\x88\xe0\xbf'
p22
tp23
Rp24
sS'angleSq'
p25
g7
(g11
S'&o\x0e>\x91N\xb6\xbf'
p26
tp27
Rp28
stp29
Rp30
sS'L'
p31
g0
(g1
g2
(dp32
g6
g7
(g11
S'S6{C\xaa<\x97?'
p33
tp34
Rp35
sg17
g7
(g11
S'\xa4\x14l\xb5l\x9b\xc8?'
p36
tp37
Rp38
sg21
g7
(g11
S'+\xddPQbf\xe2\xbf'
p39
tp40
Rp41
sg25
g7
(g11
S'WV"@/\xc4\x80?'
p42
tp43
Rp44
stp45
Rp46
sS'G'
p47
g0
(g1
g2
(dp48
g6
g7
(g11
S'\x0c\xb8\xa4\xc8\xdai\xb2\xbf'
p49
tp50
Rp51
sg17
g7
(g11
S'A}\xad\x1f\xd6\x1d\xec?'
p52
tp53
Rp54
sg21
g7
(g11
S'}$,\x9bq\xf6\x06\xc0'
p55
tp56
Rp57
sg25
g7
(g11
S'\xdbt\xfac<l\xe0\xbf'
p58
tp59
Rp60
stp61
Rp62
stp63
Rp64
.