ccopy_reg
_reconstructor
p0
(cutil
Counter
p1
c__builtin__
dict
p2
(dp3
S'R'
p4
g0
(g1
g2
(dp5
S'angle'
p6
cnumpy.core.multiarray
scalar
p7
(cnumpy
dtype
p8
(S'f8'
p9
I0
I1
tp10
Rp11
(I3
S'<'
p12
NNNI-1
I-1
I0
tp13
bS'\xd2\x9fvX\xdeP\x9d?'
p14
tp15
Rp16
sS'bias'
p17
g7
(g11
S'\xf4\xcb\xd4\x8f`;\xa0?'
p18
tp19
Rp20
sS'dist'
p21
g7
(g11
S'\xf6\x89^"A\xe5\xc4\xbf'
p22
tp23
Rp24
sS'angleSq'
p25
g7
(g11
S'\xfew\xb2!\xf6$u?'
p26
tp27
Rp28
stp29
Rp30
sS'L'
p31
g0
(g1
g2
(dp32
g6
g7
(g11
S',&S\xb3\xefP\x85\xbf'
p33
tp34
Rp35
sg17
g7
(g11
S'\xa0h\n\xe3\xbb(\xa5?'
p36
tp37
Rp38
sg21
g7
(g11
S'\xba\xe2<\x87k\xe7\xc1\xbf'
p39
tp40
Rp41
sg25
g7
(g11
S'\xa9[\xc5\xa4\t\xf8k\xbf'
p42
tp43
Rp44
stp45
Rp46
sS'G'
p47
g0
(g1
g2
(dp48
g6
g7
(g11
S"'\xbe\xfa\xfa\xa8V\xa8?"
p49
tp50
Rp51
sg17
g7
(g11
S'\x84\x16@3\xa5]\xe5?'
p52
tp53
Rp54
sg21
g7
(g11
S'>\xc2\xd0\xa0\xba\x93\x11\xc0'
p55
tp56
Rp57
sg25
g7
(g11
S'\xd4\xf2\xffi\x1b=\xd6\xbf'
p58
tp59
Rp60
stp61
Rp62
stp63
Rp64
.