ccopy_reg
_reconstructor
p0
(cutil
Counter
p1
c__builtin__
dict
p2
(dp3
((I2
I-3
tp4
S'R'
p5
tp6
F2.067032634906679e-11
s((I6
I2
tp7
S'G'
p8
tp9
F9.759039943955973e-10
s((I1
I3
tp10
S'L'
p11
tp12
F-0.5
s((I2
I1
tp13
g5
tp14
F-0.0008596295205995252
s((I1
I4
tp15
g11
tp16
F-0.12499991238602057
s((I1
I-4
tp17
g8
tp18
F2.624806291071414e-09
s((I4
I4
tp19
g11
tp20
F9.829473061968895e-08
s((I3
I-4
tp21
g11
tp22
F1.9156404005671795e-09
s((I4
I3
tp23
g11
tp24
F2.663267931419134e-09
s((I5
I1
tp25
g11
tp26
F4.715078366765125e-09
s((I6
I1
tp27
g8
tp28
F2.2239465689186462e-08
s(g23
g5
tp29
F1.0876493103130236e-09
s((I5
I4
tp30
g11
tp31
F7.993338531300494e-09
s((I2
I4
tp32
g11
tp33
F2.197341846660002e-09
s((I3
I-3
tp34
g11
tp35
F6.375175671507351e-10
s((I3
I1
tp36
g5
tp37
F-0.00010648515142349085
s((I3
I4
tp38
g5
tp39
F1.4078996017190541e-09
s((I2
I3
tp40
g11
tp41
F9.948322988323943e-10
s((I4
I0
tp42
g8
tp43
F5.4629623085500195e-09
s((I3
I2
tp44
g8
tp45
F3.703786904620724e-10
s((I4
I-2
tp46
g5
tp47
F1.1830073787588754e-09
s((I2
I-4
tp48
g8
tp49
F2.7178652663507385e-09
s((I6
I4
tp50
g11
tp51
F-5.9365314868611285e-05
s((I1
I-3
tp52
g8
tp53
F9.784865686070543e-11
s(g48
g11
tp54
F8.877113822880377e-11
s(g52
g11
tp55
F-0.4999999999987064
s(g50
g5
tp56
F-0.0019694653977516768
s(g21
g8
tp57
F9.74533090552038e-10
s((I6
I-1
tp58
g5
tp59
F8.698990205913894e-08
s((I5
I2
tp60
g11
tp61
F1.6368893377240054e-08
s((I6
I-4
tp62
g5
tp63
F1.3801391342235539e-08
s((I6
I-3
tp64
g5
tp65
F7.250844424082088e-06
s(g58
g8
tp66
F2.8468540458693058e-08
s((I1
I1
tp67
g5
tp68
F-0.7778451799187425
s(g27
g11
tp69
F4.242580954829509e-09
s((I3
I-1
tp70
g5
tp71
F1.9677782630176993e-10
s((I4
I-4
tp72
g5
tp73
F1.7808463985014057e-08
s((I2
I-2
tp74
g11
tp75
F-9.624033826766458e-07
s((I1
I0
tp76
g5
tp77
F-1.0127357498800618
s((I5
I-1
tp78
g5
tp79
F4.9499626302072244e-08
s(g70
g8
tp80
F4.495435805972235e-12
s(g17
g11
tp81
F-0.4999999987046448
s((I5
I-3
tp82
g5
tp83
F2.8316150127338114e-08
s(g52
g5
tp84
F-0.2499999996497764
s(g17
g5
tp85
F-0.37499995806573844
s((I6
I-2
tp86
g8
tp87
F-0.00986312976359837
s(g7
g11
tp88
F3.617264114216298e-10
s((I4
I1
tp89
g11
tp90
F6.596313433594731e-09
s((I2
I0
tp91
g8
tp92
F-0.21724271452535868
s((I2
I-1
tp93
g5
tp94
F8.306736795552788e-10
s(g4
g8
tp95
F1.8550507214259707e-08
s((I4
I-3
tp96
g11
tp97
F1.1493593999009832e-09
s(g96
g8
tp98
F2.744428788424351e-10
s(g44
g11
tp99
F3.560354061858486e-10
s(g86
g5
tp100
F2.9358476695009265e-07
s(g67
g11
tp101
F-0.5097206710796023
s(g89
g8
tp102
F-2.5152263148149876e-06
s((I4
I-1
tp103
g8
tp104
F3.9556958636504097e-10
s(g30
g8
tp105
F-1.8068984688215939e-07
s((I3
I0
tp106
g11
tp107
F3.4447980111391766e-09
s(g78
g11
tp108
F5.506490809630507e-08
s((I1
I2
tp109
g11
tp110
F6.018580621191275e-11
s((I1
I-1
tp111
g11
tp112
F-1.007867856583822
s(g58
g11
tp113
F2.32958521117621e-08
s(g72
g8
tp114
F-2.768905170919377e-06
s((I6
I0
tp115
g5
tp116
I0
s(g38
g11
tp117
F2.946229460693241e-09
s(g48
g5
tp118
F2.0560413350813004e-09
s((I6
I3
tp119
g11
tp120
F-7.880400077301095e-05
s(g38
g8
tp121
F4.036004081805793e-08
s((I1
I-2
tp122
g5
tp123
F-0.37499999912131615
s(g119
g8
tp124
F3.463850241024375e-08
s((I5
I-2
tp125
g11
tp126
F1.295836028199834e-07
s((I3
I-2
tp127
g8
tp128
F1.2294711308527072e-10
s(g125
g8
tp129
F3.731661086395885e-09
s(g91
g11
tp130
F-0.002162781206858968
s(g19
g5
tp131
F1.1666745024486677e-09
s(g32
g8
tp132
F3.2000427675668116e-09
s((I5
I3
tp133
g8
tp134
F1.4634264223633005e-09
s((I4
I2
tp135
g5
tp136
F9.911503188998372e-08
s((I3
I3
tp137
g8
tp138
F4.2072523268379613e-10
s(g4
g11
tp139
F2.2625887592703115e-11
s(g50
g8
tp140
F3.93885098177939e-05
s(g10
g5
tp141
F-0.25499999995855727
s(g111
g8
tp142
F-0.879999999801032
s((I2
I2
tp143
g8
tp144
F4.242631406660086e-10
s(g76
g8
tp145
F-0.9787499998528725
s((I5
I-4
tp146
g5
tp147
F3.7202937494050756e-08
s(g46
g8
tp148
F2.854457988920901e-09
s(g86
g11
tp149
F1.1913696875630997e-09
s(g30
g5
tp150
F8.658434730578761e-10
s(g32
g5
tp151
F2.53195149023586e-09
s(g96
g5
tp152
F2.940393782691096e-09
s(g127
g11
tp153
F1.9586577812626307e-10
s(g111
g5
tp154
F-0.6058795794376366
s(g27
g5
tp155
F1.0395624000384776e-08
s(g143
g5
tp156
F2.964433610992965e-10
s(g7
g5
tp157
F1.4746807538746814e-08
s(g89
g5
tp158
F8.703516708701588e-08
s(g109
g5
tp159
F-0.7499928006486813
s(g115
g8
tp160
F2.5484500384715137e-08
s(g46
g11
tp161
F4.958193219053344e-09
s(g76
g11
tp162
F-0.9549336245649379
s(g60
g8
tp163
F9.792842722122868e-09
s(g19
g8
tp164
F1.446624789150197e-09
s(g36
g11
tp165
F1.0541395673340566e-10
s(g82
g8
tp166
F1.9800166758663335e-08
s(g91
g5
tp167
F-0.03813703738343047
s(g72
g11
tp168
F5.160656155334352e-10
s(g127
g5
tp169
F3.5579087908494185e-10
s(g125
g5
tp170
F5.552772022411451e-09
s((I3
I3
tp171
g11
tp172
F2.3069578364100456e-09
s(g40
g8
tp173
F1.0897165907300933e-09
s(g10
g8
tp174
F7.352537330427503e-10
s((I5
I0
tp175
g8
tp176
F5.26470448381083e-07
s(g122
g11
tp177
F-0.7499999999941394
s(g34
g8
tp178
F-1.9998268109177585e-06
s(g122
g8
tp179
F0.00018554889090674793
s(g67
g8
tp180
F-0.3749999997261564
s(g115
g11
tp181
F2.072399719992835e-08
s(g64
g8
tp182
F-7.553237763020109e-07
s(g133
g5
tp183
F5.690442718689044e-09
s(g13
g8
tp184
F-0.5751046986998369
s(g133
g11
tp185
F1.520126231289772e-09
s(g82
g11
tp186
F3.043078660641802e-08
s(g137
g5
tp187
F3.687983405845499e-10
s(g36
g8
tp188
F-9.839020548211233e-07
s(g34
g5
tp189
F7.009512167143743e-10
s(g44
g5
tp190
F-1.3935960247395304e-05
s(g78
g8
tp191
F1.2121976082931791e-07
s(g103
g5
tp192
F1.8483474553327922e-08
s(g25
g8
tp193
F4.733706405343462e-09
s(g74
g5
tp194
F2.3824231200623393e-08
s(g15
g5
tp195
F-1.6149626501669555e-78
s(g21
g5
tp196
F1.6351303646674724e-09
s(g23
g8
tp197
F1.0470153519214977e-09
s(g119
g5
tp198
F4.6154024140138106e-08
s(g146
g8
tp199
F-1.9394448756400608e-05
s(g62
g8
tp200
F2.4270904812134997e-08
s(g60
g5
tp201
F5.0280493855176566e-08
s(g93
g11
tp202
F-0.0001667665384543963
s(g62
g11
tp203
F-1.9152086273250654e-06
s(g70
g11
tp204
F-0.00038931683224447246
s(g42
g5
tp205
F1.4176006769486663e-08
s(g13
g11
tp206
F9.432612050918108e-10
s(g15
g8
tp207
F1.573564128444045e-08
s(g109
g8
tp208
F2.5047984995239325e-06
s(g106
g5
tp209
F-1.3324833324313338e-06
s(g42
g11
tp210
F3.798117212795675e-08
s(g40
g5
tp211
F1.221113347680872e-09
s(g106
g8
tp212
F-0.00024287095416189032
s(g143
g11
tp213
F6.045676630049377e-10
s(g175
g11
tp214
F3.508193868609592e-07
s(g25
g5
tp215
F1.2372127134869462e-07
s(g135
g8
tp216
F3.20744708520969e-11
s(g175
g5
tp217
F3.431525249808303e-07
s(g135
g11
tp218
F2.0729446761093705e-11
s(g74
g8
tp219
F8.847862879190974e-12
s(g64
g11
tp220
F-9.840090739127099e-05
s(g146
g11
tp221
F2.1759082148946885e-09
s(g93
g8
tp222
F-0.008499700238090059
s(g103
g11
tp223
F1.1788552693498884e-07
stp224
Rp225
.