ccopy_reg
_reconstructor
p0
(cutil
Counter
p1
c__builtin__
dict
p2
(dp3
((I2
I-3
tp4
S'R'
p5
tp6
F0.050260311279062185
s((I9
I-1
tp7
g5
tp8
F2.9072340210207256e-07
s((I1
I3
tp9
S'L'
p10
tp11
F0.5172327623683914
s((I2
I1
tp12
g5
tp13
F1.214125996569178
s((I1
I4
tp14
g10
tp15
I0
s((I7
I-1
tp16
S'G'
p17
tp18
F0.004875873063763544
s((I1
I-4
tp19
S'G'
p20
tp21
I0
s((I9
I0
tp22
g17
tp23
F4.473620033501335e-06
s((I8
I4
tp24
g5
tp25
F1.529226278062457e-05
s((I7
I-3
tp26
g5
tp27
F1.3736172489821505e-06
s((I2
I4
tp28
g10
tp29
F1.8078341508901662e-05
s((I3
I4
tp30
g5
tp31
F0.0035130048725713825
s((I1
I1
tp32
g17
tp33
F1.0095543425805653
s(g14
g5
tp34
I0
s((I6
I4
tp35
g10
tp36
F1.1906698456928365e-08
s((I7
I0
tp37
g10
tp38
F0.0025824615007723345
s(g35
g5
tp39
F0.0002588853025131476
s((I3
I-4
tp40
g17
tp41
F8.919812468649898e-05
s((I6
I-2
tp42
g5
tp43
F0.0014469880899411068
s((I9
I2
tp44
g17
tp45
F1.9020572254337051e-06
s((I6
I-4
tp46
g5
tp47
F5.676545475020914e-07
s((I8
I0
tp48
g5
tp49
F0.0003254001834297705
s((I6
I-3
tp50
g5
tp51
F7.635331641521089e-05
s((I3
I-1
tp52
g5
tp53
F0.16321738447392162
s((I7
I-2
tp54
g17
tp55
F0.0012331028853538053
s((I9
I-3
tp56
g10
tp57
F1.951099086757284e-07
s((I1
I0
tp58
g5
tp59
F0.2811307548376217
s((I5
I-1
tp60
g5
tp61
F0.005740318591417229
s((I10
I4
tp62
g17
tp63
F3.551220791626633e-10
s(g42
g17
tp64
F0.003293744547912454
s((I2
I0
tp65
g17
tp66
F1.0431576462107035
s(g24
g17
tp67
F5.756309029516033e-07
s((I4
I-3
tp68
g10
tp69
F0.007722210111760146
s(g68
g17
tp70
F0.00068772498815737
s((I3
I2
tp71
g10
tp72
F0.005639847005186559
s(g48
g17
tp73
F0.003809824376888423
s((I2
I3
tp74
g17
tp75
F0.0007042846437063511
s((I10
I-4
tp76
g17
tp77
F3.7489115241046426e-10
s((I3
I0
tp78
g10
tp79
F0.22162257264214485
s((I9
I1
tp80
g10
tp81
F1.8564118269793167e-06
s((I10
I0
tp82
g10
tp83
F1.1579504992119178e-07
s((I8
I3
tp84
g10
tp85
F1.16916208609923e-05
s((I7
I3
tp86
g17
tp87
F1.5285090925349373e-05
s((I4
I-4
tp88
g17
tp89
F4.317258962173703e-05
s((I6
I0
tp90
g5
tp91
F0.019828684315284423
s(g30
g10
tp92
F0.000498694994321105
s((I10
I-1
tp93
g17
tp94
F9.10126060166992e-08
s(g30
g17
tp95
F5.381108146421247e-05
s(g56
g5
tp96
F1.6858861335632858e-07
s(g26
g17
tp97
F3.2243301477514586e-05
s((I1
I-1
tp98
g17
tp99
F1.0149101361543382
s(g48
g10
tp100
F0.0004490086604443821
s((I4
I4
tp101
g5
tp102
F0.003401140973966754
s((I6
I1
tp103
g17
tp104
F0.017742588459764858
s((I8
I-2
tp105
g17
tp106
F0.00020622324804167076
s((I10
I1
tp107
g10
tp108
F7.515793783853453e-08
s(g62
g5
tp109
F3.2670723564129254e-11
s(g107
g5
tp110
F5.118874203453904e-07
s((I3
I3
tp111
g17
tp112
F0.0008734721122664181
s(g4
g10
tp113
F0.9192738984931652
s(g86
g5
tp114
F0.00022097940198225838
s(g58
g17
tp115
F1.0071380911860965
s((I5
I-4
tp116
g5
tp117
F4.6421340273348325e-05
s((I4
I-2
tp118
g17
tp119
F0.005973741912109129
s(g42
g10
tp120
F0.014444875443305217
s(g28
g5
tp121
F0.003019722689911592
s(g68
g5
tp122
F0.0003337590102966731
s((I10
I-2
tp123
g10
tp124
F3.151305281831309e-07
s((I5
I4
tp125
g10
tp126
F3.664887966064336e-05
s((I1
I-2
tp127
g5
tp128
F0.09244421027082966
s((I5
I3
tp129
g5
tp130
F0.0019239185384317382
s((I2
I-2
tp131
g5
tp132
F0.17748467600801734
s((I2
I2
tp133
g5
tp134
F0.8179010705076879
s((I6
I2
tp135
g5
tp136
F0.017740293848452125
s((I9
I4
tp137
g10
tp138
F3.463355021124701e-08
s(g137
g5
tp139
F5.276782935348194e-07
s(g58
g10
tp140
F0.9955600719510673
s((I5
I2
tp141
g17
tp142
F0.0028446544172329004
s((I10
I3
tp143
g5
tp144
F4.487757291520978e-08
s(g88
g10
tp145
F0.0019510344980417191
s((I5
I-2
tp146
g5
tp147
F0.0025135477893099382
s(g32
g10
tp148
F0.22230129093423873
s((I5
I0
tp149
g17
tp150
F0.22755837915060398
s((I7
I2
tp151
g5
tp152
F0.001685453029193314
s(g127
g17
tp153
F0.001699706331670907
s(g74
g10
tp154
F0.0011656137197563646
s(g90
g10
tp155
F0.00909678930822649
s(g93
g10
tp156
F6.635166173521524e-08
s(g60
g10
tp157
F0.026057728350528265
s((I7
I-4
tp158
g5
tp159
F1.554816858121252e-05
s(g12
g17
tp160
F1.108376950107386
s((I5
I-3
tp161
g10
tp162
F0.0062468515489719455
s(g107
g17
tp163
F3.548656265114011e-08
s((I8
I1
tp164
g17
tp165
F0.0006079296083121735
s((I10
I-3
tp166
g17
tp167
F6.0457153677028706e-09
s(g127
g10
tp168
F0.6819310163734829
s(g98
g5
tp169
F0.21094390776352626
s((I7
I4
tp170
g17
tp171
F1.3541459618814715e-06
s((I8
I-1
tp172
g5
tp173
F6.272794310767781e-05
s(g146
g17
tp174
F0.0034511081002392583
s((I10
I2
tp175
g5
tp176
F1.0453910617681246e-07
s(g118
g5
tp177
F0.005975303022943933
s((I8
I-3
tp178
g17
tp179
F1.2315566461661577e-05
s((I9
I-2
tp180
g10
tp181
F4.5084422528481955e-07
s((I3
I-2
tp182
g10
tp183
F0.20720420596966105
s(g84
g5
tp184
F5.0943572087548575e-05
s((I3
I-3
tp185
g5
tp186
F0.0007793515007761506
s(g80
g17
tp187
F0.00025170241530883986
s(g158
g17
tp188
F3.250482139139342e-08
s(g82
g17
tp189
F3.840118458640777e-05
s(g12
g10
tp190
F0.46961477206301755
s((I2
I-4
tp191
g5
tp192
F6.37792173076272e-05
s((I1
I2
tp193
g17
tp194
F0.02550363841383599
s(g78
g5
tp195
F0.2186274972447309
s(g105
g5
tp196
F0.00018606978695790062
s(g16
g5
tp197
F0.0005312399114187499
s(g74
g5
tp198
F0.7904549647438124
s(g78
g17
tp199
F1.2040762105447667
s((I2
I2
tp200
g10
tp201
F0.06920167745264881
s(g76
g5
tp202
F5.676045625517263e-10
s((I5
I1
tp203
g5
tp204
F0.16587036584955353
s((I4
I2
tp205
g17
tp206
F0.005289094170481328
s(g149
g5
tp207
F0.029791009619027142
s(g205
g10
tp208
F0.003048310559722967
s(g135
g17
tp209
F0.0013172844066567727
s((I8
I2
tp210
g17
tp211
F0.00012043758286776896
s(g54
g5
tp212
F0.0004329340945070213
s(g210
g10
tp213
F2.4401959280534262e-05
s((I9
I-4
tp214
g17
tp215
F2.5316918017313686e-08
s(g172
g17
tp216
F0.0021980316825117177
s((I8
I-4
tp217
g10
tp218
F1.5705263143635795e-07
s(g101
g10
tp219
F0.00026045168469672567
s(g40
g10
tp220
F4.832095832279241e-08
s((I4
I3
tp221
g10
tp222
F0.001028364608372735
s((I7
I1
tp223
g5
tp224
F0.005094160826924902
s(g223
g17
tp225
F0.004058572964082727
s(g205
g5
tp226
F0.03769391098339598
s(g170
g5
tp227
F3.823983057177077e-05
s(g221
g5
tp228
F0.025817798973539807
s(g44
g5
tp229
F1.2223165389487988e-05
s(g24
g10
tp230
F3.6338963315755074e-07
s(g185
g10
tp231
F0.13891221235987228
s((I3
I1
tp232
g5
tp233
F0.23433209228128565
s((I9
I3
tp234
g10
tp235
F5.824155590718382e-08
s((I4
I0
tp236
g17
tp237
F0.5742985686609874
s(g71
g17
tp238
F0.009731363097584931
s(g37
g5
tp239
F0.0013576441443809615
s((I4
I-1
tp240
g5
tp241
F0.012042789817866701
s(g191
g17
tp242
F0.00014329001166731955
s((I1
I-3
tp243
g17
tp244
I0
s(g191
g10
tp245
F0.12670902099893214
s(g80
g5
tp246
F4.6319325776958464e-06
s(g243
g10
tp247
F0.14899473487828666
s(g141
g10
tp248
F0.005197761891901565
s(g217
g17
tp249
F1.6241668144095288e-07
s(g84
g17
tp250
F1.1818895654092053e-05
s((I6
I-1
tp251
g17
tp252
F0.025840566242507496
s(g32
g5
tp253
F0.9636677210885369
s(g103
g10
tp254
F0.0037657588095627286
s(g164
g5
tp255
F0.0015647496142271401
s(g88
g5
tp256
F0.0001369962210799136
s(g131
g10
tp257
F1.1258376939736545
s(g52
g17
tp258
F1.2040997740547292
s(g7
g10
tp259
F1.1413413953302369e-05
s(g16
g10
tp260
F0.008009771286195247
s((I9
I0
tp261
g5
tp262
F1.2800738441515785e-06
s(g37
g17
tp263
F0.023394432352619753
s(g19
S'L'
p264
tp265
I0
s(g161
g5
tp266
F0.00032102788656182183
s(g243
g5
tp267
I0
s(g19
S'R'
p268
tp269
F8.706772663465838e-05
s(g123
g5
tp270
F1.0307217637192455e-08
s(g135
g10
tp271
F0.00034242447777392104
s((I4
I1
tp272
g10
tp273
F0.03361407756690371
s(g170
g10
tp274
F5.728906714254354e-07
s((I2
I-1
tp275
g5
tp276
F0.6836587935126763
s(g151
g17
tp277
F0.000233241235363827
s(g4
g17
tp278
F5.1969015936534715e-05
s(g50
g17
tp279
F6.385714548862802e-05
s(g236
g5
tp280
F0.08121798152593634
s(g251
g5
tp281
F0.00228395779767722
s(g272
g17
tp282
F0.11609909966912042
s(g240
g17
tp283
F0.05885449188624277
s(g125
g17
tp284
F8.875934710499895e-06
s(g275
g17
tp285
F1.1312532939408104
s(g193
g10
tp286
F0.00011034270539573601
s(g251
g10
tp287
F0.011670795250028964
s(g137
g17
tp288
F6.931322329881805e-09
s(g44
g10
tp289
F1.768856854726809e-06
s(g166
g10
tp290
F5.227203802582225e-08
s((I6
I3
tp291
g10
tp292
F5.1902250478523975e-05
s(g151
g10
tp293
F0.00010874532927249396
s(g291
g17
tp294
F0.00011868046301787652
s(g146
g10
tp295
F0.017171616172101015
s(g180
g17
tp296
F1.8960446939210065e-07
s(g111
g5
tp297
F0.014026589083648225
s(g60
g17
tp298
F0.18102957508368256
s(g7
g17
tp299
F1.3305403495168762e-06
s(g76
g10
tp300
F4.96233542848275e-09
s(g65
g10
tp301
F1.1166390873443133
s(g143
g17
tp302
F7.4119268359959e-10
s(g28
g17
tp303
F3.036204878591311e-06
s(g98
g10
tp304
F0.699456505807653
s(g129
g17
tp305
F0.00014768764526570602
s(g86
g10
tp306
F2.2928788411293785e-05
s(g82
g5
tp307
F1.0711344284628641e-07
s(g54
g10
tp308
F0.0021795978403943766
s(g35
g17
tp309
F1.2373190656507575e-05
s(g9
g5
tp310
F8.528581914140626e-06
s(g178
g5
tp311
F1.371240551330378e-07
s(g133
g17
tp312
F0.055805483000870716
s(g234
g5
tp313
F4.7309446884261495e-07
s(g175
g17
tp314
F7.555196777370635e-09
s(g125
g5
tp315
F0.0009499936493936689
s(g52
g10
tp316
F0.23475137827050013
s(g105
g10
tp317
F0.0007428144572698979
s(g56
g17
tp318
F8.91711337866462e-08
s(g193
g5
tp319
F1.0621755291364985
s(g214
g10
tp320
F1.4517481157864037e-07
s(g90
g17
tp321
F0.08170135513362065
s(g240
g10
tp322
F0.128596690126981
s(g180
g5
tp323
F2.610262765767891e-07
s(g172
g10
tp324
F0.0007815750168828645
s(g101
g17
tp325
F7.219233242458973e-05
s(g232
g10
tp326
F0.14883672242496915
s(g161
g17
tp327
F0.0001388863148509872
s(g65
g5
tp328
F0.49748704703769636
s(g164
g10
tp329
F9.136909665664291e-05
s((I3
I-2
tp330
g5
tp331
F0.03144168535717777
s(g111
g10
tp332
F0.0026279463436415665
s(g182
g17
tp333
F0.011297970716537212
s(g9
g17
tp334
F2.1300727852697038e-05
s(g185
g17
tp335
F4.9565888368237375e-05
s(g234
g17
tp336
F5.074544898157215e-07
s(g93
g5
tp337
F4.662619406451965e-08
s(g178
g10
tp338
F0.00010195663252142312
s(g217
g5
tp339
F2.076191584205058e-06
s(g223
g10
tp340
F0.00035761286580837616
s(g214
g5
tp341
F2.7682645807765314e-08
s(g103
g5
tp342
F0.0199156291326896
s((I10
I4
tp343
g10
tp344
F1.035078984351417e-09
s(g210
g5
tp345
F0.0005723986669832117
s(g22
g10
tp346
F3.35777605072152e-05
s(g129
g10
tp347
F0.00021212004176372239
s(g158
g10
tp348
F1.4074466556933755e-06
s(g232
g17
tp349
F0.8866102770352329
s(g71
g5
tp350
F0.17075046458286697
s(g203
g17
tp351
F0.023678727352849052
s(g26
g10
tp352
F0.00036140152104637474
s(g203
g10
tp353
F0.010877254990910672
s(g175
g10
tp354
F1.1388945372663356e-08
s(g40
g5
tp355
F0.00032933291414619017
s(g221
g17
tp356
F0.0007352984247684303
s(g291
g5
tp357
F0.000845466969463866
s(g116
g17
tp358
F1.621500700537177e-06
s(g46
g17
tp359
F1.8460204114818015e-06
s(g141
g5
tp360
F0.028916406372591366
s(g275
g10
tp361
F1.222379775154321
s(g46
g10
tp362
F0.00024508083368001267
s(g123
g17
tp363
F1.4086056896662238e-08
s(g14
g17
tp364
F0.0011944052527501736
s(g236
g10
tp365
F0.16755105822675145
s(g149
g10
tp366
F0.014905355614744266
s(g131
g17
tp367
F0.014831067830604762
s(g50
g10
tp368
F0.0007839307488948459
s(g143
g10
tp369
F9.071751399083707e-10
s(g116
g10
tp370
F0.0012658316885371984
s(g166
g5
tp371
F3.671239678872567e-09
s(g272
g5
tp372
F0.10921752079096385
s(g118
g10
tp373
F0.03994078007450287
stp374
Rp375
.