ccopy_reg
_reconstructor
p0
(cutil
Counter
p1
c__builtin__
dict
p2
(dp3
((I2
I-3
tp4
S'R'
p5
tp6
I0
s((I9
I-2
tp7
g5
tp8
F0.17955947262991018
s((I1
I3
tp9
S'L'
p10
tp11
F0.0
s((I2
I1
tp12
g5
tp13
I0
s((I1
I4
tp14
g10
tp15
F0.001334991093739947
s((I7
I-1
tp16
S'G'
p17
tp18
F0.9225104314499932
s((I1
I-4
tp19
g17
tp20
I0
s((I9
I0
tp21
g17
tp22
F0.6540444471995273
s((I8
I4
tp23
g5
tp24
F0.1352798642993448
s((I7
I-3
tp25
g5
tp26
F0.01133061672665808
s((I2
I4
tp27
g10
tp28
F0.005542398926278648
s((I3
I4
tp29
g5
tp30
F0.0
s((I2
I3
tp31
g10
tp32
I0
s(g14
g5
tp33
I0
s((I6
I4
tp34
g10
tp35
F0.010544991652119707
s((I7
I0
tp36
g10
tp37
F1.2409709495867853
s(g34
g5
tp38
F0.07307726405091598
s((I3
I-4
tp39
g17
tp40
F0.01621465484397929
s((I6
I-1
tp41
g5
tp42
F1.244485873858818
s((I9
I2
tp43
g17
tp44
F0.5482549512984822
s((I6
I-4
tp45
g5
tp46
F0.008315358988202941
s((I8
I0
tp47
g5
tp48
F1.2485877423860419
s((I6
I-3
tp49
g5
tp50
F0.11236799411523121
s((I3
I3
tp51
g17
tp52
F0.02241244360101345
s((I7
I-2
tp53
g17
tp54
F0.29039067788257283
s((I9
I-3
tp55
g10
tp56
F1.1694564957829112
s((I1
I0
tp57
g5
tp58
I0
s((I5
I-1
tp59
g5
tp60
F1.2323019417422596
s((I10
I4
tp61
g17
tp62
F0.00050055812678839
s((I6
I-2
tp63
g17
tp64
F0.214063180348105
s((I2
I0
tp65
g17
tp66
I0
s(g23
g17
tp67
F0.026351399327899462
s((I4
I-3
tp68
g10
tp69
F1.1643227234239983
s(g68
g17
tp70
F0.05536616469580881
s((I3
I2
tp71
g10
tp72
F0.005703907263946768
s(g47
g17
tp73
F0.9067378647144715
s(g31
g17
tp74
F0.027057308050326606
s((I10
I-4
tp75
g17
tp76
F0.001250267208897949
s((I3
I0
tp77
g10
tp78
I0
s((I9
I1
tp79
g10
tp80
F0.9944642353581679
s((I10
I0
tp81
g10
tp82
F0.014505882835812497
s((I8
I3
tp83
g10
tp84
F0.03648125986137153
s((I7
I3
tp85
g17
tp86
F0.03624319459272049
s((I4
I-4
tp87
g17
tp88
F0.023073111084077925
s((I6
I0
tp89
g5
tp90
F1.2024455907910745
s(g29
g10
tp91
F0.018127603886852146
s((I10
I-2
tp92
g17
tp93
F0.0037526332695582802
s(g29
g17
tp94
F0.01334991093739947
s(g55
g5
tp95
F0.032376172504390836
s(g25
g17
tp96
F0.07579146577259191
s((I1
I-2
tp97
g17
tp98
I0
s((I4
I4
tp99
g5
tp100
F0.08105191949650388
s((I4
I2
tp101
g5
tp102
F1.069222692067057
s((I8
I-2
tp103
g17
tp104
F0.7351539135780862
s((I10
I1
tp105
g10
tp106
F0.0049405851232216975
s(g61
g5
tp107
F0.000598925764676523
s(g105
g5
tp108
F0.09083363272162566
s(g4
g10
tp109
F0.0011053699273101151
s(g85
g5
tp110
F1.1347054028743107
s(g57
g17
tp111
I0
s((I5
I-4
tp112
g5
tp113
F0.0031345531338788203
s((I4
I-1
tp114
g17
tp115
F0.8480770793006555
s(g63
g10
tp116
F1.236776010394066
s(g27
g5
tp117
I0
s(g68
g5
tp118
F0.028765395833785762
s(g92
g10
tp119
F0.3662635034242592
s((I5
I4
tp120
g10
tp121
F0.0109106901720291
s((I1
I-1
tp122
g5
tp123
F3.22869317237596e-05
s((I6
I1
tp124
g5
tp125
F0.7233783214925504
s((I2
I-1
tp126
g5
tp127
F0.7501120449633931
s((I2
I2
tp128
g5
tp129
F0.502435466328068
s((I6
I2
tp130
g5
tp131
F1.2436461676684998
s((I9
I4
tp132
g10
tp133
F0.028318747216966825
s((I4
I1
tp134
g5
tp135
F1.1560872306856513
s(g132
g5
tp136
F0.1533373038598489
s(g57
g10
tp137
I0
s((I5
I2
tp138
g17
tp139
F0.19706097628689523
s((I10
I3
tp140
g5
tp141
F0.007672747945219815
s(g87
g10
tp142
F0.15490556616481987
s((I5
I-2
tp143
g5
tp144
F0.23658246887032497
s(g103
g5
tp145
F0.6152832183463987
s(g9
g5
tp146
I0
s((I1
I1
tp147
g10
tp148
F0.0009904006319821058
s((I5
I0
tp149
g17
tp150
F0.900470451185873
s(g122
g10
tp151
I0
s(g122
g17
tp152
I0
s(g147
g17
tp153
I0
s(g89
g10
tp154
F1.2365027057153264
s(g49
g17
tp155
F0.0247481520207341
s(g59
g10
tp156
F1.17623992657027
s((I4
I0
tp157
g17
tp158
F0.6011961706361637
s(g12
g17
tp159
I0
s((I5
I-3
tp160
g10
tp161
F0.7300335095474889
s(g105
g17
tp162
F0.013939995943207353
s((I8
I1
tp163
g17
tp164
F1.110948766393601
s(g51
g5
tp165
I0
s(g97
g5
tp166
F0.0002708160220712076
s((I7
I4
tp167
g17
tp168
F0.009810281503684848
s((I10
I-3
tp169
g17
tp170
F0.0021407674833838573
s(g25
g10
tp171
F0.9407786289361854
s(g143
g17
tp172
F0.13024934825099105
s((I10
I2
tp173
g5
tp174
F0.010733218578649773
s(g114
g5
tp175
F1.027773448511223
s((I8
I-3
tp176
g17
tp177
F0.02032191417634288
s((I9
I-1
tp178
g10
tp179
F0.5788843652138369
s(g83
g5
tp180
F0.5507239088237508
s((I3
I-3
tp181
g5
tp182
F0.021442725407731462
s(g79
g17
tp183
F1.2453105281945969
s(g157
g5
tp184
F0.5548946292554827
s(g81
g17
tp185
F0.8121683757788924
s(g12
g10
tp186
F0.75
s((I2
I-4
tp187
g5
tp188
F0.0027432580867109363
s((I1
I2
tp189
g17
tp190
F0.0011241729559995802
s(g77
g5
tp191
F0.8125154492248283
s((I8
I-1
tp192
g5
tp193
F0.49900592985476067
s(g53
g5
tp194
F0.6616820900520368
s(g31
g5
tp195
F0.0
s(g77
g17
tp196
I0
s(g128
g10
tp197
I0
s(g75
g5
tp198
F0.0003184460557599407
s((I5
I1
tp199
g5
tp200
F1.188625321998849
s(g101
g17
tp201
F0.03769227893742688
s(g149
g5
tp202
F0.9644822994566276
s(g101
g10
tp203
F0.16511162372627256
s(g130
g17
tp204
F0.380606383097678
s((I8
I2
tp205
g17
tp206
F0.36075725762611355
s(g16
g5
tp207
F1.2476457982965827
s(g205
g10
tp208
F0.19899733867788483
s((I9
I-4
tp209
g17
tp210
F0.00815873812353059
s(g192
g17
tp211
F0.867795267515526
s((I8
I-4
tp212
g10
tp213
F0.0534646828560654
s(g99
g10
tp214
F0.0010544991652119708
s(g39
g10
tp215
I0
s((I4
I3
tp216
g10
tp217
F0.08443111956497214
s((I7
I1
tp218
g5
tp219
F1.2445252836399465
s(g218
g17
tp220
F1.13247603116098
s(g124
g17
tp221
F1.1847389390317744
s(g167
g5
tp222
F0.05322767184110711
s(g216
g5
tp223
F0.5478145461005359
s(g43
g5
tp224
F1.247956422611038
s(g23
g10
tp225
F0.020873696040170378
s(g181
g10
tp226
F0.0
s((I3
I1
tp227
g5
tp228
I0
s((I9
I3
tp229
g10
tp230
F0.05598462284163957
s((I7
I2
tp231
g5
tp232
F1.2298102620405653
s((I7
I-4
tp233
g5
tp234
F0.01609018845423317
s(g71
g17
tp235
F0.002915084162764307
s(g36
g5
tp236
F0.7411453100090728
s((I4
I-2
tp237
g5
tp238
F0.17640587752000084
s(g187
g17
tp239
I0
s((I1
I-3
tp240
g17
tp241
I0
s(g187
g10
tp242
I0
s(g79
g5
tp243
F0.7319561759768242
s(g92
g5
tp244
F0.0030656633700865575
s(g240
g10
tp245
F7.485433233794266e-05
s(g138
g10
tp246
F0.47335074034758673
s(g212
g17
tp247
F0.02732417407523853
s(g83
g17
tp248
F0.1448040599253741
s(g41
g17
tp249
F0.9725713164894381
s(g147
g5
tp250
I0
s(g124
g10
tp251
F0.7471353380650225
s(g163
g5
tp252
F0.9845767834030007
s(g87
g5
tp253
I0
s((I2
I-2
tp254
g10
tp255
F0.00010299483218839916
s((I3
I-1
tp256
g17
tp257
I0
s(g7
g10
tp258
F1.2488319846213365
s(g16
g10
tp259
F1.185113587650093
s(g21
g5
tp260
F0.6393944650365773
s(g36
g17
tp261
F0.9328488136678745
s(g19
g10
tp262
I0
s(g160
g5
tp263
F0.003547223833585804
s(g240
g5
tp264
I0
s(g19
g5
tp265
F0.0015682010980655103
s((I10
I-1
tp266
g5
tp267
F0.0343839814242203
s(g130
g10
tp268
F0.3138563501758571
s(g134
g10
tp269
F0.9034991887148467
s(g167
g10
tp270
F0.015360346075480747
s(g134
g17
tp271
F0.26790264446126455
s(g231
g17
tp272
F0.8131763175715423
s(g4
g17
tp273
I0
s(g256
g5
tp274
F0.6823372826778176
s(g233
g17
tp275
F8.0689699158596e-06
s(g63
g5
tp276
F0.21665766431691558
s(g237
g17
tp277
F0.02186020186965046
s(g120
g17
tp278
I0
s((I10
I-1
tp279
g10
tp280
F1.0713887192505294
s(g189
g10
tp281
I0
s(g41
g10
tp282
F1.106354575412931
s(g132
g17
tp283
F0.017005996645277206
s(g43
g10
tp284
F0.329276832476992
s(g169
g10
tp285
F0.5348152816638821
s((I6
I3
tp286
g10
tp287
F0.06659281933184374
s(g231
g10
tp288
F0.28185245370494666
s(g286
g17
tp289
F0.01656669871957212
s(g143
g10
tp290
F1.2040772732479657
s(g7
g17
tp291
F0.4216766387937754
s((I3
I-2
tp292
g17
tp293
F0.0
s(g59
g17
tp294
F0.8028501976981712
s(g178
g17
tp295
F0.49900616719315877
s(g75
g10
tp296
F0.05974760494713511
s(g65
g10
tp297
I0
s(g140
g17
tp298
F9.52020273618507e-05
s(g27
g17
tp299
I0
s(g97
g10
tp300
I0
s((I5
I3
tp301
g17
tp302
F0.07022418101931982
s(g85
g10
tp303
F0.10396922203177511
s(g81
g5
tp304
F0.042848047052413074
s(g53
g10
tp305
F0.7488846521273358
s(g34
g17
tp306
F0.023068902134713735
s(g256
g10
tp307
I0
s(g176
g5
tp308
F0.13579442886535703
s(g128
g17
tp309
I0
s(g229
g5
tp310
F1.069982377876934
s(g173
g17
tp311
F0.007127327092384501
s(g120
g5
tp312
F0.19590517004669866
s(g292
g10
tp313
I0
s(g192
g10
tp314
F1.2494376798949225
s(g55
g17
tp315
F0.1626449909160112
s(g189
g5
tp316
I0
s(g209
g10
tp317
F0.12749106552424067
s(g89
g17
tp318
F1.003675459200669
s(g237
g10
tp319
F1.0806850790409714
s(g178
g5
tp320
F1.2471023657593392
s(g103
g10
tp321
F1.2488565162108274
s(g99
g17
tp322
I0
s(g227
g10
tp323
F0.9434013823453615
s(g160
g17
tp324
F0.013899536645749423
s(g65
g5
tp325
F0.8751086089071138
s(g163
g10
tp326
F1.2480837634459605
s(g292
g5
tp327
F0.13392371343288542
s(g51
g10
tp328
I0
s(g9
g17
tp329
I0
s(g181
g17
tp330
I0
s(g229
g17
tp331
F0.07217874680482009
s(g47
g10
tp332
F0.9355935521866616
s(g176
g10
tp333
F0.9425711064602103
s(g212
g5
tp334
F0.02251263438945514
s(g218
g10
tp335
F1.2103522309122545
s(g209
g5
tp336
F0.018771331700655904
s(g301
g5
tp337
F1.1356587856502145
s(g61
g10
tp338
F0.003533640171828421
s(g205
g5
tp339
F1.2489033613490692
s(g21
g10
tp340
F1.2168007068106268
s(g301
g10
tp341
F0.09731346196241963
s(g233
g10
tp342
F0.0037150334393647624
s(g227
g17
tp343
I0
s(g71
g5
tp344
I0
s(g199
g17
tp345
F0.9920670431780433
s(g254
g5
tp346
I0
s(g199
g10
tp347
F0.967353345474059
s(g173
g10
tp348
F0.010127358016635644
s(g39
g5
tp349
I0
s(g216
g17
tp350
F0.07025018503892091
s(g286
g5
tp351
F1.0628187810420706
s(g112
g17
tp352
F0.02258120596376575
s(g45
g17
tp353
F0.011356567769292562
s(g138
g5
tp354
F1.2297405234315038
s(g126
g10
tp355
I0
s(g45
g10
tp356
F0.11338530023313244
s(g266
g17
tp357
F0.008966555118872222
s(g14
g17
tp358
I0
s(g157
g10
tp359
F1.0664726268531273
s(g149
g10
tp360
F1.2090940239469021
s(g254
g17
tp361
F0.01909260520593478
s(g49
g10
tp362
F0.4270527625258553
s(g140
g10
tp363
F0.0013044925008224531
s(g112
g10
tp364
F0.06913233121329615
s(g169
g5
tp365
F0.00187883654490179
s(g126
g17
tp366
I0
s(g114
g10
tp367
F1.1671200539915487
stp368
Rp369
.