(lp0
(lp1
F0.03082336306680676
aF-4.554806687184401e-13
aF0.9691766369336487
aa(lp2
F0.056041020141632945
aF0.12906874197661733
aF0.8148902378817497
aa(lp3
F0.722067372224754
aF-1.4595985049597122e-13
aF0.27793262777539196
aa(lp4
F0.6407296654097132
aF0.14499090666447118
aF0.21427942792581556
aa.