(lp0
(lp1
F1.8375901564486646e-14
aF5.961103258927837e-14
aF0.999999999999922
aa(lp2
F0.013937278268357937
aF0.3058881196994103
aF0.6801746020322317
aa(lp3
F0.45738680154979067
aF0.0669952435444543
aF0.47561795490575504
aa(lp4
F0.45404042553283736
aF0.18632775357620565
aF0.359631820890957
aa.