(lp0
(lp1
F7.988279697264138e-18
aF0.04746530258946792
aF0.9525346974105321
aF0.5
aF0.10000000000000017
aF0.8075690149993638
aa(lp2
F1.287108107347411e-18
aF0.2294457042084033
aF0.7705542957915967
aF0.8103418542417011
aF0.9000000000000001
aF0.9
aa(lp3
F0.2503469384103294
aF0.2696298839386547
aF0.4800231776510158
aF0.11542949057466576
aF0.9
aF0.7134162415960187
aa(lp4
F0.4037582528792514
aF0.18174329108379805
aF0.41449845603695057
aF0.1800326729038683
aF0.09999999999991352
aF0.3538683729412054
aa.