(lp0
(lp1
F0.047985409616455754
aF-7.809303193778115e-19
aF0.9520145903835443
aF0.9
aF0.30000000000000004
aF0.9
aa(lp2
F-5.491794575975641e-20
aF0.09072813737890356
aF0.9092718626210965
aF0.7000000000000001
aF0.2
aF0.7000000000000001
aa(lp3
F0.41123382913090917
aF0.05911982102842911
aF0.5296463498406616
aF0.30000000000000004
aF0.9
aF0.5
aa(lp4
F0.38203447139522806
aF0.10008860730482141
aF0.5178769212999506
aF0.30000000000000004
aF0.1
aF0.5
aa.