(lp0
(lp1
F1.9039489181436127e-18
aF0.2639048618074395
aF0.7360951381925606
aF0.9
aF0.9
aF0.6000000000000001
aa(lp2
F6.071901834737956e-17
aF0.270777610501824
aF0.729222389498176
aF0.1
aF0.4
aF0.4
aa(lp3
F0.23191076357426274
aF0.4440916226188926
aF0.3239976138068447
aF0.2
aF0.9
aF0.30000000000000004
aa(lp4
F0.13329528579404046
aF0.6924663946420961
aF0.17423831956386351
aF0.1
aF0.9
aF0.2
aa.