(lp0
(lp1
F2.2016295583421607e-16
aF0.3122063692689714
aF0.6877936307310285
aF0.5
aF0.8999999999999998
aF0.8999999999999995
aa(lp2
F0.05061119310052663
aF0.5196078488685366
aF0.42978095803093663
aF0.09999968716886268
aF0.9000000010154361
aF0.8999999942978886
aa(lp3
F0.2486630651922656
aF0.3882481654444702
aF0.36308876936326423
aF0.19481951451001325
aF0.9
aF0.8459331283679049
aa(lp4
F0.19024960583468492
aF0.5628271344711183
aF0.24692325969419673
aF0.19391347030922046
aF0.9
aF0.9
aa.