(lp0
(lp1
F0.03507790641171604
aF0.016845977854873753
aF0.9480761157334102
aF0.8916298642386935
aF0.1810300258174209
aF0.9
aa(lp2
F0.0
aF0.2273041765379841
aF0.7726958234620159
aF0.9
aF0.13412908720424585
aF0.6183866390389335
aa(lp3
F0.39542979205131523
aF0.09837050444174626
aF0.5061997035069385
aF0.18907918201651003
aF0.1
aF0.40688784834181635
aa(lp4
F0.31173938806595136
aF0.18044726255435942
aF0.5078133493796892
aF0.14797035183263
aF0.1
aF0.5705190013860575
aa.