(lp0
(lp1
F0.002818387120306633
aF1.245665565459539e-15
aF0.9971816128796922
aF0.8999999999999455
aF0.8207553593641213
aF0.9000000000000077
aa(lp2
F2.7211514383058012e-17
aF0.11050415331623717
aF0.8894958466837628
aF0.6414936928477483
aF0.21251544205182354
aF0.6686133959181104
aa(lp3
F0.3186921463366131
aF0.11989790065715344
aF0.5614099530062334
aF0.2266847652759802
aF0.9
aF0.5661965586782072
aa(lp4
F0.33316820309949524
aF0.15390965024810427
aF0.5129221466524005
aF0.14912835714432404
aF0.1
aF0.4304913561727838
aa.