(lp0
(lp1
F-2.5935235927173334e-14
aF0.05232741632938983
aF0.9476725836706361
aF0.9000000000565278
aF0.21914522601658742
aF0.2818316625360907
aa(lp2
F1.1894704421961856e-13
aF0.5536473457506501
aF0.4463526542492309
aF0.8999999998492995
aF0.899999999912263
aF0.37892939715590074
aa(lp3
F0.48707629244935957
aF0.29024905114926886
aF0.22267465640137157
aF0.8999999999875792
aF0.8712913809469232
aF0.26349353674045356
aa(lp4
F0.5814341389212887
aF0.19881106845433255
aF0.21975479262437883
aF0.9000000000161305
aF0.6915435825077494
aF0.12646687694102812
aa.