(lp0
(lp1
F0.08717947856353295
aF1.4114982305361695e-14
aF0.912820521436453
aa(lp2
F0.019509612864508023
aF0.17422523493375114
aF0.8062651522017408
aa(lp3
F0.4545433026443282
aF0.023438556636161532
aF0.5220181407195104
aa(lp4
F0.47298678151140483
aF0.10977498113183703
aF0.4172382373567581
aa.