(lp0
(lp1
F0.08872122109077639
aF2.9661704428512387e-13
aF0.911278778908927
aa(lp2
F0.07530218902344465
aF-7.447941181738786e-19
aF0.9246978109765553
aa(lp3
F0.5756803367514586
aF1.1816691366123047e-13
aF0.4243196632484232
aa(lp4
F0.5213168858316058
aF0.17391757008372677
aF0.3047655440846673
aa.