(lp0
(lp1
F0.002818387120306633
aF1.245665565459539e-15
aF0.9971816128796922
aF0.8999999999999455
aF0.8207553593641213
aF0.9000000000000077
aa(lp2
F2.7211514383058012e-17
aF0.11050415331623717
aF0.8894958466837628
aF0.6414936928477483
aF0.21251544205182354
aF0.6686133959181104
aa(lp3
F0.3186921463366131
aF0.11989790065715344
aF0.5614099530062334
aF0.2266847652759802
aF0.9
aF0.5661965586782072
aa(lp4
F0.35798571235705917
aF0.15347420239324275
aF0.488540085249698
aF0.1538204160123775
aF0.10000000000000178
aF0.37726827005633495
aa.