(lp0
(lp1
F0.0014668472173578104
aF1.797400156672307e-18
aF0.9985331527826422
aa(lp2
F4.923484453931837e-18
aF0.15844091358265014
aF0.8415590864173498
aa(lp3
F0.3930247823222454
aF0.05788774567442363
aF0.5490874720033309
aa(lp4
F0.32846130346827274
aF0.17296074699831862
aF0.4985779495334088
aa.